(dp1
S'output'
p2
S''
sS'layer'
p3
S'D:\\Project\\Acc_Proj\\app_root\\wfs_R3_dev\\applications\\admin\\controllers/default.py'
p4
sS'code'
p5
S'# coding: utf8\n\nfrom gluon.admin import *\nfrom gluon.fileutils import abspath, read_file, write_file\nfrom glob import glob\nimport shutil\nimport platform\n\nif DEMO_MODE and request.function in [\'change_password\',\'pack\',\'pack_plugin\',\'upgrade_web2py\',\'uninstall\',\'cleanup\',\'compile_app\',\'remove_compiled_app\',\'delete\',\'delete_plugin\',\'create_file\',\'upload_file\',\'update_languages\',\'reload_routes\']:\n    session.flash = T(\'disabled in demo mode\')\n    redirect(URL(\'site\'))\n\nif not is_manager() and request.function in [\'change_password\',\'upgrade_web2py\']:\n    session.flash = T(\'disabled in multi user mode\')\n    redirect(URL(\'site\'))\n\nif FILTER_APPS and request.args(0) and not request.args(0) in FILTER_APPS:\n    session.flash = T(\'disabled in demo mode\')\n    redirect(URL(\'site\'))\n\ndef safe_open(a,b):\n    if DEMO_MODE and \'w\' in b:\n        class tmp:\n            def write(self,data): pass\n        return tmp()\n    return open(a,b)\n\ndef safe_read(a, b=\'r\'):\n    safe_file = safe_open(a, b)\n    try:\n        return safe_file.read()\n    finally:\n        safe_file.close()\n\ndef safe_write(a, value, b=\'w\'):\n    safe_file = safe_open(a, b)\n    try:\n        safe_file.write(value)\n    finally:\n        safe_file.close()\n\ndef get_app(name=None):\n    app = name or request.args(0)\n    if app and (not MULTI_USER_MODE or db(db.app.name==app)(db.app.owner==auth.user.id).count()):\n        return app\n    session.flash = \'App does not exist or your are not authorized\'\n    redirect(URL(\'site\'))\n\ndef index():\n    """ Index handler """\n\n    send = request.vars.send\n    if DEMO_MODE:\n        session.authorized = True\n        session.last_time = t0\n    if not send:\n        send = URL(\'site\')\n    if session.authorized:\n        redirect(send)\n    elif request.vars.password:\n        if verify_password(request.vars.password):\n            session.authorized = True\n            login_record(True)\n\n            if CHECK_VERSION:\n                session.check_version = True\n            else:\n                session.check_version = False\n\n            session.last_time = t0\n            if isinstance(send, list):  # ## why does this happen?\n                send = str(send[0])\n\n            redirect(send)\n        else:\n            times_denied = login_record(False)\n            if times_denied >= allowed_number_of_attempts:\n                response.flash = \\\n                    T(\'admin disabled because too many invalid login attempts\')\n            elif times_denied == allowed_number_of_attempts - 1:\n                response.flash = \\\n                    T(\'You have one more login attempt before you are locked out\')\n            else:\n                response.flash = T(\'invalid password.\')\n    return dict(send=send)\n\n\ndef check_version():\n    """ Checks if web2py is up to date """\n\n    session.forget()\n    session._unlock(response)\n\n    new_version, version_number = check_new_version(request.env.web2py_version,\n                                    WEB2PY_VERSION_URL)\n\n    if new_version == -1:\n        return A(T(\'Unable to check for upgrades\'), _href=WEB2PY_URL)\n    elif new_version != True:\n        return A(T(\'web2py is up to date\'), _href=WEB2PY_URL)\n    elif platform.system().lower() in (\'windows\',\'win32\',\'win64\') and os.path.exists("web2py.exe"):\n        return SPAN(\'You should upgrade to version %s\' % version_number)\n    else:\n        return sp_button(URL(\'upgrade_web2py\'), T(\'upgrade now\')) \\\n          + XML(\' <strong class="upgrade_version">%s</strong>\' % version_number)\n\n\ndef logout():\n    """ Logout handler """\n    session.authorized = None\n    if MULTI_USER_MODE:\n        redirect(URL(\'user/logout\'))\n    redirect(URL(\'index\'))\n\n\ndef change_password():\n\n    if session.pam_user:\n        session.flash = T(\'PAM authenticated user, cannot change password here\')\n        redirect(URL(\'site\'))\n    form=SQLFORM.factory(Field(\'current_admin_password\',\'password\'),\n                         Field(\'new_admin_password\',\'password\',requires=IS_STRONG()),\n                         Field(\'new_admin_password_again\',\'password\'))\n    if form.accepts(request.vars):\n        if not verify_password(request.vars.current_admin_password):\n            form.errors.current_admin_password = T(\'invalid password\')\n        elif form.vars.new_admin_password != form.vars.new_admin_password_again:\n            form.errors.new_admin_password_again = T(\'no match\')\n        else:\n            path = abspath(\'parameters_%s.py\' % request.env.server_port)\n            safe_write(path, \'password="%s"\' % CRYPT()(request.vars.new_admin_password)[0])\n            session.flash = T(\'password changed\')\n            redirect(URL(\'site\'))\n    return dict(form=form)\n\ndef site():\n    """ Site handler """\n\n    myversion = request.env.web2py_version\n\n    # Shortcut to make the elif statements more legible\n    file_or_appurl = \'file\' in request.vars or \'appurl\' in request.vars\n\n    if DEMO_MODE:\n        pass\n\n    elif request.vars.filename and not \'file\' in request.vars:\n        # create a new application\n        appname = cleanpath(request.vars.filename).replace(\'.\', \'_\')\n        if app_create(appname, request):\n            if MULTI_USER_MODE:\n                db.app.insert(name=appname,owner=auth.user.id)\n            session.flash = T(\'new application "%s" created\', appname)\n            redirect(URL(\'design\',args=appname))\n        else:\n            session.flash = \\\n                T(\'unable to create application "%s" (it may exist already)\', request.vars.filename)\n        redirect(URL(r=request))\n\n    elif file_or_appurl and not request.vars.filename:\n        # can\'t do anything without an app name\n        msg = \'you must specify a name for the uploaded application\'\n        response.flash = T(msg)\n\n    elif file_or_appurl and request.vars.filename:\n        # fetch an application via URL or file upload\n        f = None\n        if request.vars.appurl is not \'\':\n            try:\n                f = urllib.urlopen(request.vars.appurl)\n            except Exception, e:\n                session.flash = DIV(T(\'Unable to download app because:\'),PRE(str(e)))\n                redirect(URL(r=request))\n            fname = request.vars.appurl\n        elif request.vars.file is not \'\':\n            f = request.vars.file.file\n            fname = request.vars.file.filename\n\n        if f:\n            appname = cleanpath(request.vars.filename).replace(\'.\', \'_\')\n            installed = app_install(appname, f, request, fname,\n                                    overwrite=request.vars.overwrite_check)\n        if f and installed:\n            msg = \'application %(appname)s installed with md5sum: %(digest)s\'\n            session.flash = T(msg, dict(appname=appname,\n                                        digest=md5_hash(installed)))\n        elif f and request.vars.overwrite_check:\n            msg = \'unable to install application "%(appname)s"\'\n            session.flash = T(msg, dict(appname=request.vars.filename))\n\n        else:\n            msg = \'unable to install application "%(appname)s"\'\n            session.flash = T(msg, dict(appname=request.vars.filename))\n\n        redirect(URL(r=request))\n\n    regex = re.compile(\'^\\w+$\')\n\n    if is_manager():\n        apps = [f for f in os.listdir(apath(r=request)) if regex.match(f)]\n    else:\n        apps = [f.name for f in db(db.app.owner==auth.user_id).select()]\n\n    if FILTER_APPS:\n        apps = [f for f in apps if f in FILTER_APPS]\n\n    apps = sorted(apps,lambda a,b:cmp(a.upper(),b.upper()))\n\n    return dict(app=None, apps=apps, myversion=myversion)\n\n\ndef pack():\n    app = get_app()\n\n    if len(request.args) == 1:\n        fname = \'web2py.app.%s.w2p\' % app\n        filename = app_pack(app, request)\n    else:\n        fname = \'web2py.app.%s.compiled.w2p\' % app\n        filename = app_pack_compiled(app, request)\n\n    if filename:\n        response.headers[\'Content-Type\'] = \'application/w2p\'\n        disposition = \'attachment; filename=%s\' % fname\n        response.headers[\'Content-Disposition\'] = disposition\n        return safe_read(filename, \'rb\')\n    else:\n        session.flash = T(\'internal error\')\n        redirect(URL(\'site\'))\n\ndef pack_plugin():\n    app = get_app()\n    if len(request.args) == 2:\n        fname = \'web2py.plugin.%s.w2p\' % request.args[1]\n        filename = plugin_pack(app, request.args[1], request)\n    if filename:\n        response.headers[\'Content-Type\'] = \'application/w2p\'\n        disposition = \'attachment; filename=%s\' % fname\n        response.headers[\'Content-Disposition\'] = disposition\n        return safe_read(filename, \'rb\')\n    else:\n        session.flash = T(\'internal error\')\n        redirect(URL(\'plugin\',args=request.args))\n\ndef upgrade_web2py():\n    if \'upgrade\' in request.vars:\n        (success, error) = upgrade(request)\n        if success:\n            session.flash = T(\'web2py upgraded; please restart it\')\n        else:\n            session.flash = T(\'unable to upgrade because "%s"\', error)\n        redirect(URL(\'site\'))\n    elif \'noupgrade\' in request.vars:\n        redirect(URL(\'site\'))\n    return dict()\n\ndef uninstall():\n    app = get_app()\n    if \'delete\' in request.vars:\n        if MULTI_USER_MODE:\n            if is_manager() and db(db.app.name==app).delete():\n                pass\n            elif db(db.app.name==app)(db.app.owner==auth.user.id).delete():\n                pass\n            else:\n                session.flash = T(\'no permission to uninstall "%s"\', app)\n                redirect(URL(\'site\'))\n        if app_uninstall(app, request):            \n            session.flash = T(\'application "%s" uninstalled\', app)\n        else:\n            session.flash = T(\'unable to uninstall "%s"\', app)\n        redirect(URL(\'site\'))\n    elif \'nodelete\' in request.vars:\n        redirect(URL(\'site\'))\n    return dict(app=app)\n\n\ndef cleanup():\n    app = get_app()\n    clean = app_cleanup(app, request)\n    if not clean:\n        session.flash = T("some files could not be removed")\n    else:\n        session.flash = T(\'cache, errors and sessions cleaned\')\n\n    redirect(URL(\'site\'))\n\n\ndef compile_app():\n    app = get_app()\n    c = app_compile(app, request)\n    if not c:\n        session.flash = T(\'application compiled\')\n    else:\n        session.flash = DIV(T(\'Cannot compile: there are errors in your app:\'),\n                              CODE(c))\n    redirect(URL(\'site\'))\n\n\ndef remove_compiled_app():\n    """ Remove the compiled application """\n    app = get_app()\n    remove_compiled_application(apath(app, r=request))\n    session.flash = T(\'compiled application removed\')\n    redirect(URL(\'site\'))\n\ndef delete():\n    """ Object delete handler """\n    app = get_app()\n    filename = \'/\'.join(request.args)\n    sender = request.vars.sender\n\n    if isinstance(sender, list):  # ## fix a problem with Vista\n        sender = sender[0]\n\n    if \'nodelete\' in request.vars:\n        redirect(URL(sender))\n    elif \'delete\' in request.vars:\n        try:\n            os.unlink(apath(filename, r=request))\n            session.flash = T(\'file "%(filename)s" deleted\',\n                              dict(filename=filename))\n        except Exception:\n            session.flash = T(\'unable to delete file "%(filename)s"\',\n                              dict(filename=filename))\n        redirect(URL(sender))\n    return dict(filename=filename, sender=sender)\n\ndef peek():\n    """ Visualize object code """\n    app = get_app()\n    filename = \'/\'.join(request.args)\n    try:\n        data = safe_read(apath(filename, r=request)).replace(\'\\r\',\'\')\n    except IOError:\n        session.flash = T(\'file does not exist\')\n        redirect(URL(\'site\'))\n\n    extension = filename[filename.rfind(\'.\') + 1:].lower()\n\n    return dict(app=request.args[0],\n                filename=filename,\n                data=data,\n                extension=extension)\n\n\ndef test():\n    """ Execute controller tests """\n    app = get_app()\n    if len(request.args) > 1:\n        file = request.args[1]\n    else:\n        file = \'.*\\.py\'\n\n    controllers = listdir(apath(\'%s/controllers/\' % app, r=request), file + \'$\')\n\n    return dict(app=app, controllers=controllers)\n\ndef keepalive():\n    return \'\'\n\ndef search():\n    keywords=request.vars.keywords or \'\'\n    app = get_app()\n    def match(filename,keywords):\n        filename=os.path.join(apath(app, r=request),filename)\n        if keywords in read_file(filename,\'rb\'):\n            return True\n        return False\n    path = apath(request.args[0], r=request)\n    files1 = glob(os.path.join(path,\'*/*.py\'))\n    files2 = glob(os.path.join(path,\'*/*.html\'))\n    files3 = glob(os.path.join(path,\'*/*/*.html\'))\n    files=[x[len(path)+1:].replace(\'\\\\\',\'/\') for x in files1+files2+files3 if match(x,keywords)]\n    return response.json({\'files\':files})\n\ndef edit():\n    """ File edit handler """\n    # Load json only if it is ajax edited...\n    app = get_app()\n    filename = \'/\'.join(request.args)\n    # Try to discover the file type\n    if filename[-3:] == \'.py\':\n        filetype = \'python\'\n    elif filename[-5:] == \'.html\':\n        filetype = \'html\'\n    elif filename[-5:] == \'.load\':\n        filetype = \'html\'\n    elif filename[-4:] == \'.css\':\n        filetype = \'css\'\n    elif filename[-3:] == \'.js\':\n        filetype = \'js\'\n    else:\n        filetype = \'html\'\n\n    # ## check if file is not there\n\n    path = apath(filename, r=request)\n\n    if request.vars.revert and os.path.exists(path + \'.bak\'):\n        try:\n            data = safe_read(path + \'.bak\')\n            data1 = safe_read(path)\n        except IOError:\n            session.flash = T(\'Invalid action\')\n            if \'from_ajax\' in request.vars:\n                 return response.json({\'error\': str(T(\'Invalid action\'))})\n            else:\n                redirect(URL(\'site\'))\n\n        safe_write(path, data)\n        file_hash = md5_hash(data)\n        saved_on = time.ctime(os.stat(path)[stat.ST_MTIME])\n        safe_write(path + \'.bak\', data1)\n        response.flash = T(\'file "%s" of %s restored\', (filename, saved_on))\n    else:\n        try:\n            data = safe_read(path)\n        except IOError:\n            session.flash = T(\'Invalid action\')\n            if \'from_ajax\' in request.vars:\n                return response.json({\'error\': str(T(\'Invalid action\'))})\n            else:\n                redirect(URL(\'site\'))\n\n        file_hash = md5_hash(data)\n        saved_on = time.ctime(os.stat(path)[stat.ST_MTIME])\n\n        if request.vars.file_hash and request.vars.file_hash != file_hash:\n            session.flash = T(\'file changed on disk\')\n            data = request.vars.data.replace(\'\\r\\n\', \'\\n\').strip() + \'\\n\'\n            safe_write(path + \'.1\', data)\n            if \'from_ajax\' in request.vars:\n                return response.json({\'error\': str(T(\'file changed on disk\')),\n                                      \'redirect\': URL(\'resolve\',\n                                                      args=request.args)})\n            else:\n                redirect(URL(\'resolve\', args=request.args))\n        elif request.vars.data:\n            safe_write(path + \'.bak\', data)\n            data = request.vars.data.replace(\'\\r\\n\', \'\\n\').strip() + \'\\n\'\n            safe_write(path, data)\n            file_hash = md5_hash(data)\n            saved_on = time.ctime(os.stat(path)[stat.ST_MTIME])\n            response.flash = T(\'file saved on %s\', saved_on)\n\n    data_or_revert = (request.vars.data or request.vars.revert)\n\n    # Check compile errors\n    highlight = None\n    if filetype == \'python\' and request.vars.data:\n        import _ast\n        try:\n            code = request.vars.data.rstrip().replace(\'\\r\\n\',\'\\n\')+\'\\n\'\n            compile(code, path, "exec", _ast.PyCF_ONLY_AST)\n        except Exception, e:\n            start = sum([len(line)+1 for l, line\n                            in enumerate(request.vars.data.split("\\n"))\n                            if l < e.lineno-1])\n            if e.text and e.offset:\n                offset = e.offset - (len(e.text) - len(e.text.splitlines()[-1]))\n            else:\n                offset = 0\n            highlight = {\'start\': start, \'end\': start + offset + 1}\n            try:\n                ex_name = e.__class__.__name__\n            except:\n                ex_name = \'unknown exception!\'\n            response.flash = DIV(T(\'failed to compile file because:\'), BR(),\n                                 B(ex_name), T(\' at line %s\') % e.lineno,\n                                 offset and T(\' at char %s\') % offset or \'\',\n                                 PRE(str(e)))\n\n    if data_or_revert and request.args[1] == \'modules\':\n        # Lets try to reload the modules\n        try:\n            mopath = \'.\'.join(request.args[2:])[:-3]\n            exec \'import applications.%s.modules.%s\' % (request.args[0], mopath)\n            reload(sys.modules[\'applications.%s.modules.%s\'\n                    % (request.args[0], mopath)])\n        except Exception, e:\n            response.flash = DIV(T(\'failed to reload module because:\'),PRE(str(e)))\n\n    edit_controller = None\n    editviewlinks = None\n    view_link = None\n    if filetype == \'html\' and len(request.args) >= 3:\n        cfilename = os.path.join(request.args[0], \'controllers\',\n                                 request.args[2] + \'.py\')\n        if os.path.exists(apath(cfilename, r=request)):\n            edit_controller = URL(\'edit\', args=[cfilename])\n            view = request.args[3].replace(\'.html\',\'\')\n            view_link = URL(request.args[0],request.args[2],view)\n    elif filetype == \'python\' and request.args[1] == \'controllers\':\n        ## it\'s a controller file.\n        ## Create links to all of the associated view files.\n        app = get_app()\n        viewname = os.path.splitext(request.args[2])[0]\n        viewpath = os.path.join(app,\'views\',viewname)\n        aviewpath = apath(viewpath, r=request)\n        viewlist = []\n        if os.path.exists(aviewpath):\n            if os.path.isdir(aviewpath):\n                viewlist = glob(os.path.join(aviewpath,\'*.html\'))\n        elif os.path.exists(aviewpath+\'.html\'):\n            viewlist.append(aviewpath+\'.html\')\n        if len(viewlist):\n            editviewlinks = []\n            for v in viewlist:\n                vf = os.path.split(v)[-1]\n                vargs = "/".join([viewpath.replace(os.sep,"/"),vf])\n                editviewlinks.append(A(T(vf.split(".")[0]),\\\n                    _href=URL(\'edit\',args=[vargs])))\n\n    if len(request.args) > 2 and request.args[1] == \'controllers\':\n        controller = (request.args[2])[:-3]\n        functions = regex_expose.findall(data)\n    else:\n        (controller, functions) = (None, None)\n\n    if \'from_ajax\' in request.vars:\n        return response.json({\'file_hash\': file_hash, \'saved_on\': saved_on, \'functions\':functions, \'controller\': controller, \'application\': request.args[0], \'highlight\': highlight })\n    else:\n\n        editarea_preferences = {}\n        editarea_preferences[\'FONT_SIZE\'] = \'10\'\n        editarea_preferences[\'FULL_SCREEN\'] = \'false\'\n        editarea_preferences[\'ALLOW_TOGGLE\'] = \'true\'\n        editarea_preferences[\'REPLACE_TAB_BY_SPACES\'] = \'4\'\n        editarea_preferences[\'DISPLAY\'] = \'onload\'\n        for key in editarea_preferences:\n            if globals().has_key(key):\n                editarea_preferences[key]=globals()[key]\n        return dict(app=request.args[0],\n                    filename=filename,\n                    filetype=filetype,\n                    data=data,\n                    edit_controller=edit_controller,\n                    file_hash=file_hash,\n                    saved_on=saved_on,\n                    controller=controller,\n                    functions=functions,\n                    view_link=view_link,\n                    editarea_preferences=editarea_preferences,\n                    editviewlinks=editviewlinks)\n\ndef resolve():\n    """\n    """\n\n    filename = \'/\'.join(request.args)\n    # ## check if file is not there\n    path = apath(filename, r=request)\n    a = safe_read(path).split(\'\\n\')\n    try:\n        b = safe_read(path + \'.1\').split(\'\\n\')\n    except IOError:\n        session.flash = \'Other file, no longer there\'\n        redirect(URL(\'edit\', args=request.args))\n\n    d = difflib.ndiff(a, b)\n\n    def leading(line):\n        """  """\n\n        # TODO: we really need to comment this\n        z = \'\'\n        for (k, c) in enumerate(line):\n            if c == \' \':\n                z += \'&nbsp;\'\n            elif c == \' \\t\':\n                z += \'&nbsp;\'\n            elif k == 0 and c == \'?\':\n                pass\n            else:\n                break\n\n        return XML(z)\n\n    def getclass(item):\n        """ Determine item class """\n\n        if item[0] == \' \':\n            return \'normal\'\n        if item[0] == \'+\':\n            return \'plus\'\n        if item[0] == \'-\':\n            return \'minus\'\n\n    if request.vars:\n        c = \'\'.join([item[2:] for (i, item) in enumerate(d) if item[0] \\\n                     == \' \' or \'line%i\' % i in request.vars])\n        safe_write(path, c)\n        session.flash = \'files merged\'\n        redirect(URL(\'edit\', args=request.args))\n    else:\n        # Making the short circuit compatible with <= python2.4\n        gen_data = lambda index,item: not item[:1] in [\'+\',\'-\'] and "" \\\n                   or INPUT(_type=\'checkbox\',\n                            _name=\'line%i\' % index,\n                            value=item[0] == \'+\')\n\n        diff = TABLE(*[TR(TD(gen_data(i,item)),\n                          TD(item[0]),\n                          TD(leading(item[2:]),\n                          TT(item[2:].rstrip())), _class=getclass(item))\n                       for (i, item) in enumerate(d) if item[0] != \'?\'])\n\n    return dict(diff=diff, filename=filename)\n\n\ndef edit_language():\n    """ Edit language file """\n    app = get_app()\n    filename = \'/\'.join(request.args)\n    from gluon.languages import read_dict, write_dict\n    strings = read_dict(apath(filename, r=request))\n    keys = sorted(strings.keys(),lambda x,y: cmp(x.lower(), y.lower()))\n    rows = []\n    rows.append(H2(T(\'Original/Translation\')))\n\n    for key in keys:\n        name = md5_hash(key)\n        if key==strings[key]:\n            _class=\'untranslated\'\n        else:\n            _class=\'translated\'\n        if len(key) <= 40:\n            elem = INPUT(_type=\'text\', _name=name,value=strings[key],\n                         _size=70,_class=_class)\n        else:\n            elem = TEXTAREA(_name=name, value=strings[key], _cols=70,\n                            _rows=5, _class=_class)\n\n        # Making the short circuit compatible with <= python2.4\n        k = (strings[key] != key) and key or B(key)\n\n        rows.append(P(k, BR(), elem, TAG.BUTTON(T(\'delete\'),\n                            _onclick=\'return delkey("%s")\' % name), _id=name))\n\n    rows.append(INPUT(_type=\'submit\', _value=T(\'update\')))\n    form = FORM(*rows)\n    if form.accepts(request.vars, keepvalues=True):\n        strs = dict()\n        for key in keys:\n            name = md5_hash(key)\n            if form.vars[name]==chr(127): continue\n            strs[key] = form.vars[name]\n        write_dict(apath(filename, r=request), strs)\n        session.flash = T(\'file saved on %(time)s\', dict(time=time.ctime()))\n        redirect(URL(r=request,args=request.args))\n    return dict(app=request.args[0], filename=filename, form=form)\n\n\ndef about():\n    """ Read about info """\n    app = get_app()\n    # ## check if file is not there\n    about = safe_read(apath(\'%s/ABOUT\' % app, r=request))\n    license = safe_read(apath(\'%s/LICENSE\' % app, r=request))\n    return dict(app=app, about=MARKMIN(about), license=MARKMIN(license))\n\n\ndef design():\n    """ Application design handler """\n    app = get_app()\n\n    if not response.flash and app == request.application:\n        msg = T(\'ATTENTION: you cannot edit the running application!\')\n        response.flash = msg\n\n    if request.vars.pluginfile!=None and not isinstance(request.vars.pluginfile,str):\n        filename=os.path.basename(request.vars.pluginfile.filename)\n        if plugin_install(app, request.vars.pluginfile.file,\n                          request, filename):\n            session.flash = T(\'new plugin installed\')\n            redirect(URL(\'design\',args=app))\n        else:\n            session.flash = \\\n                T(\'unable to create application "%s"\', request.vars.filename)\n        redirect(URL(r=request))\n    elif isinstance(request.vars.pluginfile,str):\n        session.flash = T(\'plugin not specified\')\n        redirect(URL(r=request))\n\n\n    # If we have only pyc files it means that\n    # we cannot design\n    if os.path.exists(apath(\'%s/compiled\' % app, r=request)):\n        session.flash = \\\n            T(\'application is compiled and cannot be designed\')\n        redirect(URL(\'site\'))\n\n    # Get all models\n    models = listdir(apath(\'%s/models/\' % app, r=request), \'.*\\.py$\')\n    models=[x.replace(\'\\\\\',\'/\') for x in models]\n    defines = {}\n    for m in models:\n        data = safe_read(apath(\'%s/models/%s\' % (app, m), r=request))\n        defines[m] = regex_tables.findall(data)\n        defines[m].sort()\n\n    # Get all controllers\n    controllers = sorted(listdir(apath(\'%s/controllers/\' % app, r=request), \'.*\\.py$\'))\n    controllers = [x.replace(\'\\\\\',\'/\') for x in controllers]\n    functions = {}\n    for c in controllers:\n        data = safe_read(apath(\'%s/controllers/%s\' % (app, c), r=request))\n        items = regex_expose.findall(data)\n        functions[c] = items\n\n    # Get all views\n    views = sorted(listdir(apath(\'%s/views/\' % app, r=request), \'[\\w/\\-]+\\.\\w+$\'))\n    views = [x.replace(\'\\\\\',\'/\') for x in views]\n    extend = {}\n    include = {}\n    for c in views:\n        data = safe_read(apath(\'%s/views/%s\' % (app, c), r=request))\n        items = regex_extend.findall(data)\n\n        if items:\n            extend[c] = items[0][1]\n\n        items = regex_include.findall(data)\n        include[c] = [i[1] for i in items]\n\n    # Get all modules\n    modules = listdir(apath(\'%s/modules/\' % app, r=request), \'.*\\.py$\')\n    modules = modules=[x.replace(\'\\\\\',\'/\') for x in modules]\n    modules.sort()\n\n    # Get all static files\n    statics = listdir(apath(\'%s/static/\' % app, r=request), \'[^\\.#].*\')\n    statics = [x.replace(\'\\\\\',\'/\') for x in statics]\n    statics.sort()\n\n    # Get all languages\n    languages = listdir(apath(\'%s/languages/\' % app, r=request), \'[\\w-]*\\.py\')\n\n    #Get crontab\n    cronfolder = apath(\'%s/cron\' % app, r=request)\n    if not os.path.exists(cronfolder): os.mkdir(cronfolder)\n    crontab = apath(\'%s/cron/crontab\' % app, r=request)\n    if not os.path.exists(crontab):\n        safe_write(crontab, \'#crontab\')\n\n    plugins=[]\n    def filter_plugins(items,plugins):\n        plugins+=[item[7:].split(\'/\')[0].split(\'.\')[0] for item in items if item.startswith(\'plugin_\')]\n        plugins[:]=list(set(plugins))\n        plugins.sort()\n        return [item for item in items if not item.startswith(\'plugin_\')]\n\n    return dict(app=app,\n                models=filter_plugins(models,plugins),\n                defines=defines,\n                controllers=filter_plugins(controllers,plugins),\n                functions=functions,\n                views=filter_plugins(views,plugins),\n                modules=filter_plugins(modules,plugins),\n                extend=extend,\n                include=include,\n                statics=filter_plugins(statics,plugins),\n                languages=languages,\n                crontab=crontab,\n                plugins=plugins)\n\ndef delete_plugin():\n    """ Object delete handler """\n    app=request.args(0)\n    plugin = request.args(1)\n    plugin_name=\'plugin_\'+plugin\n    if \'nodelete\' in request.vars:\n        redirect(URL(\'design\',args=app))\n    elif \'delete\' in request.vars:\n        try:\n            for folder in [\'models\',\'views\',\'controllers\',\'static\',\'modules\']:\n                path=os.path.join(apath(app,r=request),folder)\n                for item in os.listdir(path):\n                    if item.startswith(plugin_name):\n                        filename=os.path.join(path,item)\n                        if os.path.isdir(filename):\n                            shutil.rmtree(filename)\n                        else:\n                            os.unlink(filename)\n            session.flash = T(\'plugin "%(plugin)s" deleted\',\n                              dict(plugin=plugin))\n        except Exception:\n            session.flash = T(\'unable to delete file plugin "%(plugin)s"\',\n                              dict(plugin=plugin))\n        redirect(URL(\'design\',args=request.args(0)))\n    return dict(plugin=plugin)\n\ndef plugin():\n    """ Application design handler """\n    app = get_app()\n    plugin = request.args(1)\n\n    if not response.flash and app == request.application:\n        msg = T(\'ATTENTION: you cannot edit the running application!\')\n        response.flash = msg\n\n    # If we have only pyc files it means that\n    # we cannot design\n    if os.path.exists(apath(\'%s/compiled\' % app, r=request)):\n        session.flash = \\\n            T(\'application is compiled and cannot be designed\')\n        redirect(URL(\'site\'))\n\n    # Get all models\n    models = listdir(apath(\'%s/models/\' % app, r=request), \'.*\\.py$\')\n    models=[x.replace(\'\\\\\',\'/\') for x in models]\n    defines = {}\n    for m in models:\n        data = safe_read(apath(\'%s/models/%s\' % (app, m), r=request))\n        defines[m] = regex_tables.findall(data)\n        defines[m].sort()\n\n    # Get all controllers\n    controllers = sorted(listdir(apath(\'%s/controllers/\' % app, r=request), \'.*\\.py$\'))\n    controllers = [x.replace(\'\\\\\',\'/\') for x in controllers]\n    functions = {}\n    for c in controllers:\n        data = safe_read(apath(\'%s/controllers/%s\' % (app, c), r=request))\n        items = regex_expose.findall(data)\n        functions[c] = items\n\n    # Get all views\n    views = sorted(listdir(apath(\'%s/views/\' % app, r=request), \'[\\w/\\-]+\\.\\w+$\'))\n    views = [x.replace(\'\\\\\',\'/\') for x in views]\n    extend = {}\n    include = {}\n    for c in views:\n        data = safe_read(apath(\'%s/views/%s\' % (app, c), r=request))\n        items = regex_extend.findall(data)\n        if items:\n            extend[c] = items[0][1]\n\n        items = regex_include.findall(data)\n        include[c] = [i[1] for i in items]\n\n    # Get all modules\n    modules = listdir(apath(\'%s/modules/\' % app, r=request), \'.*\\.py$\')\n    modules = modules=[x.replace(\'\\\\\',\'/\') for x in modules]\n    modules.sort()\n\n    # Get all static files\n    statics = listdir(apath(\'%s/static/\' % app, r=request), \'[^\\.#].*\')\n    statics = [x.replace(\'\\\\\',\'/\') for x in statics]\n    statics.sort()\n\n    # Get all languages\n    languages = listdir(apath(\'%s/languages/\' % app, r=request), \'[\\w-]*\\.py\')\n\n    #Get crontab\n    crontab = apath(\'%s/cron/crontab\' % app, r=request)\n    if not os.path.exists(crontab):\n        safe_write(crontab, \'#crontab\')\n\n    def filter_plugins(items):\n        regex=re.compile(\'^plugin_\'+plugin+\'(/.*|\\..*)?$\')\n        return [item for item in items if regex.match(item)]\n\n    return dict(app=app,\n                models=filter_plugins(models),\n                defines=defines,\n                controllers=filter_plugins(controllers),\n                functions=functions,\n                views=filter_plugins(views),\n                modules=filter_plugins(modules),\n                extend=extend,\n                include=include,\n                statics=filter_plugins(statics),\n                languages=languages,\n                crontab=crontab)\n\n\ndef create_file():\n    """ Create files handler """\n    try:\n        app = get_app(name=request.vars.location.split(\'/\')[0])\n        path = apath(request.vars.location, r=request)\n        filename = re.sub(\'[^\\w./-]+\', \'_\', request.vars.filename)\n\n        if path[-11:] == \'/languages/\':\n            # Handle language files\n            if len(filename) == 0:\n                raise SyntaxError\n            if not filename[-3:] == \'.py\':\n                filename += \'.py\'\n            app = path.split(\'/\')[-3]\n            path=os.path.join(apath(app, r=request),\'languages\',filename)\n            if not os.path.exists(path):\n                safe_write(path, \'\')\n            findT(apath(app, r=request), filename[:-3])\n            session.flash = T(\'language file "%(filename)s" created/updated\',\n                              dict(filename=filename))\n            redirect(request.vars.sender)\n\n        elif path[-8:] == \'/models/\':\n            # Handle python models\n            if not filename[-3:] == \'.py\':\n                filename += \'.py\'\n\n            if len(filename) == 3:\n                raise SyntaxError\n\n            text = \'# coding: utf8\\n\'\n\n        elif path[-13:] == \'/controllers/\':\n            # Handle python controllers\n            if not filename[-3:] == \'.py\':\n                filename += \'.py\'\n\n            if len(filename) == 3:\n                raise SyntaxError\n\n            text = \'# coding: utf8\\n# %s\\ndef index(): return dict(message="hello from %s")\'\n            text = text % (T(\'try something like\'), filename)\n\n        elif path[-7:] == \'/views/\':\n            if request.vars.plugin and not filename.startswith(\'plugin_%s/\' % request.vars.plugin):\n                filename = \'plugin_%s/%s\' % (request.vars.plugin, filename)\n            # Handle template (html) views\n            if filename.find(\'.\')<0:\n                filename += \'.html\'\n            extension = filename.split(\'.\')[-1].lower()\n\n            if len(filename) == 5:\n                raise SyntaxError\n\n            msg = T(\'This is the %(filename)s template\',\n                    dict(filename=filename))            \n            if extension == \'html\':\n                text = dedent("""\n                   {{extend \'layout.html\'}}\n                   <h1>%s</h1>\n                   {{=BEAUTIFY(response._vars)}}""" % msg)\n            else:\n                generic = os.path.join(path,\'generic.\'+extension)\n                if os.path.exists(generic):\n                    text = read_file(generic)\n                else:\n                    text = \'\'\n                \n        elif path[-9:] == \'/modules/\':\n            if request.vars.plugin and not filename.startswith(\'plugin_%s/\' % request.vars.plugin):\n                filename = \'plugin_%s/%s\' % (request.vars.plugin, filename)\n            # Handle python module files\n            if not filename[-3:] == \'.py\':\n                filename += \'.py\'\n\n            if len(filename) == 3:\n                raise SyntaxError\n\n            text = dedent("""\n                   #!/usr/bin/env python\n                   # coding: utf8\n                   from gluon import *\\n""")\n\n        elif path[-8:] == \'/static/\':\n            if request.vars.plugin and not filename.startswith(\'plugin_%s/\' % request.vars.plugin):\n                filename = \'plugin_%s/%s\' % (request.vars.plugin, filename)\n            text = \'\'\n        else:\n            redirect(request.vars.sender)\n\n        full_filename = os.path.join(path, filename)\n        dirpath = os.path.dirname(full_filename)\n\n        if not os.path.exists(dirpath):\n            os.makedirs(dirpath)\n\n        if os.path.exists(full_filename):\n            raise SyntaxError\n\n        safe_write(full_filename, text)\n        session.flash = T(\'file "%(filename)s" created\',\n                          dict(filename=full_filename[len(path):]))\n        redirect(URL(\'edit\',\n                 args=[os.path.join(request.vars.location, filename)]))\n    except Exception, e:\n        if not isinstance(e,HTTP):\n            session.flash = T(\'cannot create file\')\n\n    redirect(request.vars.sender)\n\n\ndef upload_file():\n    """ File uploading handler """\n\n    try:\n        filename = None\n        app = get_app(name=request.vars.location.split(\'/\')[0])\n        path = apath(request.vars.location, r=request)\n\n        if request.vars.filename:\n            filename = re.sub(\'[^\\w\\./]+\', \'_\', request.vars.filename)\n        else:\n            filename = os.path.split(request.vars.file.filename)[-1]\n\n        if path[-8:] == \'/models/\' and not filename[-3:] == \'.py\':\n            filename += \'.py\'\n\n        if path[-9:] == \'/modules/\' and not filename[-3:] == \'.py\':\n            filename += \'.py\'\n\n        if path[-13:] == \'/controllers/\' and not filename[-3:] == \'.py\':\n            filename += \'.py\'\n\n        if path[-7:] == \'/views/\' and not filename[-5:] == \'.html\':\n            filename += \'.html\'\n\n        if path[-11:] == \'/languages/\' and not filename[-3:] == \'.py\':\n            filename += \'.py\'\n\n        filename = os.path.join(path, filename)\n        dirpath = os.path.dirname(filename)\n\n        if not os.path.exists(dirpath):\n            os.makedirs(dirpath)\n\n        safe_write(filename, request.vars.file.file.read(), \'wb\')\n        session.flash = T(\'file "%(filename)s" uploaded\',\n                          dict(filename=filename[len(path):]))\n    except Exception:\n        if filename:\n            d = dict(filename = filename[len(path):])\n        else:\n            d = dict(filename = \'unkown\')\n        session.flash = T(\'cannot upload file "%(filename)s"\', d)\n\n    redirect(request.vars.sender)\n\n\ndef errors():\n    """ Error handler """\n    import operator\n    import os\n    import pickle\n    import hashlib\n\n    app = get_app()\n\n    method = request.args(1) or \'new\'\n\n\n    if method == \'new\':\n        errors_path = apath(\'%s/errors\' % app, r=request)\n\n        delete_hashes = []\n        for item in request.vars:\n            if item[:7] == \'delete_\':\n                delete_hashes.append(item[7:])\n\n        hash2error = dict()\n\n        for fn in listdir(errors_path, \'^\\w.*\'):\n            fullpath = os.path.join(errors_path, fn)\n            if not os.path.isfile(fullpath): continue\n            try:\n                fullpath_file = open(fullpath, \'r\')\n                try:\n                    error = pickle.load(fullpath_file)\n                finally:\n                    fullpath_file.close()\n            except IOError:\n                continue\n\n            hash = hashlib.md5(error[\'traceback\']).hexdigest()\n\n            if hash in delete_hashes:\n                os.unlink(fullpath)\n            else:\n                try:\n                    hash2error[hash][\'count\'] += 1\n                except KeyError:\n                    error_lines = error[\'traceback\'].split("\\n")\n                    last_line = error_lines[-2]\n                    error_causer = os.path.split(error[\'layer\'])[1]\n                    hash2error[hash] = dict(count=1, pickel=error,\n                                            causer=error_causer,\n                                            last_line=last_line,\n                                            hash=hash,ticket=fn)\n\n        decorated = [(x[\'count\'], x) for x in hash2error.values()]\n        decorated.sort(key=operator.itemgetter(0), reverse=True)\n\n        return dict(errors = [x[1] for x in decorated], app=app, method=method)\n    else:\n        for item in request.vars:\n            if item[:7] == \'delete_\':\n                os.unlink(apath(\'%s/errors/%s\' % (app, item[7:]), r=request))\n        func = lambda p: os.stat(apath(\'%s/errors/%s\' % \\\n                                           (app, p), r=request)).st_mtime\n        tickets = sorted(listdir(apath(\'%s/errors/\' % app, r=request), \'^\\w.*\'),\n                         key=func,\n                         reverse=True)\n\n        return dict(app=app, tickets=tickets, method=method)\n\n\ndef make_link(path):\n    """ Create a link from a path """\n    tryFile = path.replace(\'\\\\\', \'/\')\n\n    if os.path.isabs(tryFile) and os.path.isfile(tryFile):\n        (folder, filename) = os.path.split(tryFile)\n        (base, ext) = os.path.splitext(filename)\n        app = get_app()\n\n        editable = {\'controllers\': \'.py\', \'models\': \'.py\', \'views\': \'.html\'}\n        for key in editable.keys():\n            check_extension = folder.endswith("%s/%s" % (app,key))\n            if ext.lower() == editable[key] and check_extension:\n                return A(\'"\' + tryFile + \'"\',\n                         _href=URL(r=request,\n                         f=\'edit/%s/%s/%s\' % (app, key, filename))).xml()\n    return \'\'\n\n\ndef make_links(traceback):\n    """ Make links using the given traceback """\n\n    lwords = traceback.split(\'"\')\n\n    # Making the short circuit compatible with <= python2.4\n    result = (len(lwords) != 0) and lwords[0] or \'\'\n\n    i = 1\n\n    while i < len(lwords):\n        link = make_link(lwords[i])\n\n        if link == \'\':\n            result += \'"\' + lwords[i]\n        else:\n            result += link\n\n            if i + 1 < len(lwords):\n                result += lwords[i + 1]\n                i = i + 1\n\n        i = i + 1\n\n    return result\n\n\nclass TRACEBACK(object):\n    """ Generate the traceback """\n\n    def __init__(self, text):\n        """ TRACEBACK constructor """\n\n        self.s = make_links(CODE(text).xml())\n\n    def xml(self):\n        """ Returns the xml """\n\n        return self.s\n\n\ndef ticket():\n    """ Ticket handler """\n\n    if len(request.args) != 2:\n        session.flash = T(\'invalid ticket\')\n        redirect(URL(\'site\'))\n\n    app = get_app()\n    myversion = request.env.web2py_version\n    ticket = request.args[1]\n    e = RestrictedError()\n    e.load(request, app, ticket)\n\n    return dict(app=app,\n                ticket=ticket,\n                output=e.output,\n                traceback=(e.traceback and TRACEBACK(e.traceback)),\n                snapshot=e.snapshot,\n                code=e.code,\n                layer=e.layer,\n                myversion=myversion)\n\ndef error():\n    """ Generate a ticket (for testing) """\n    raise RuntimeError(\'admin ticket generator at your service\')\n\ndef update_languages():\n    """ Update available languages """\n\n    app = get_app()\n    update_all_languages(apath(app, r=request))\n    session.flash = T(\'Language files (static strings) updated\')\n    redirect(URL(\'design\',args=app))\n\ndef twitter():\n    session.forget()\n    session._unlock(response)\n    import gluon.tools\n    import gluon.contrib.simplejson as sj\n    try:\n        if TWITTER_HASH:\n            page = gluon.tools.fetch(\'http://twitter.com/%s?format=json\'%TWITTER_HASH)\n            return sj.loads(page)[\'#timeline\']\n        else:\n            return \'disabled\'\n    except Exception, e:\n        return DIV(T(\'Unable to download because:\'),BR(),str(e))\n\ndef user():\n    if MULTI_USER_MODE:\n        if not db(db.auth_user).count():\n            auth.settings.registration_requires_approval = False            \n        return dict(form=auth())\n    else:\n        return dict(form=T("Disabled"))\n\ndef reload_routes():\n   """ Reload routes.py """\n   gluon.rewrite.load()\n   redirect(URL(\'site\'))\n\nresponse._vars=response._caller(cleanup)\n'
p6
sS'snapshot'
p7
(dp8
S'exception'
p9
(dp10
S'__getslice__'
p11
S"<method-wrapper '__getslice__' of exceptions.WindowsError object>"
p12
sS'__str__'
p13
S"<method-wrapper '__str__' of exceptions.WindowsError object>"
p14
sS'__reduce__'
p15
S'<built-in method __reduce__ of exceptions.WindowsError object>'
p16
sS'__dict__'
p17
S'{}'
p18
sS'__sizeof__'
p19
S'<built-in method __sizeof__ of exceptions.WindowsError object>'
p20
sS'__init__'
p21
S"<method-wrapper '__init__' of exceptions.WindowsError object>"
p22
sS'__setattr__'
p23
S"<method-wrapper '__setattr__' of exceptions.WindowsError object>"
p24
sS'__reduce_ex__'
p25
S'<built-in method __reduce_ex__ of exceptions.WindowsError object>'
p26
sS'__new__'
p27
S'<built-in method __new__ of type object>'
p28
sS'errno'
p29
S'13'
p30
sS'__format__'
p31
S'<built-in method __format__ of exceptions.WindowsError object>'
p32
sS'__class__'
p33
S"<type 'exceptions.WindowsError'>"
p34
sS'filename'
p35
S"'D:/Project/Acc_Proj/app_root/wfs_R3_dev/applicat...ns/127.0.0.1-21f401f5-ead2-4ab9-a5b8-1dbc957a5324'"
p36
sS'__doc__'
p37
S"'MS-Windows OS system call failed.'"
p38
sS'__getitem__'
p39
S"<method-wrapper '__getitem__' of exceptions.WindowsError object>"
p40
sS'__setstate__'
p41
S'<built-in method __setstate__ of exceptions.WindowsError object>'
p42
sS'__getattribute__'
p43
S"<method-wrapper '__getattribute__' of exceptions.WindowsError object>"
p44
sS'args'
p45
S"(32, 'The process cannot access the file because it is being used by another process')"
p46
sS'__subclasshook__'
p47
S'<built-in method __subclasshook__ of type object>'
p48
sS'__unicode__'
p49
S'<built-in method __unicode__ of exceptions.WindowsError object>'
p50
sS'winerror'
p51
S'32'
p52
sS'strerror'
p53
S"'The process cannot access the file because it is being used by another process'"
p54
sS'__delattr__'
p55
S"<method-wrapper '__delattr__' of exceptions.WindowsError object>"
p56
sS'__repr__'
p57
S"<method-wrapper '__repr__' of exceptions.WindowsError object>"
p58
sS'__hash__'
p59
S"<method-wrapper '__hash__' of exceptions.WindowsError object>"
p60
ssS'evalue'
p61
S"[Error 32] The process cannot access the file because it is being used by another process: 'D:/Project/Acc_Proj/app_root/wfs_R3_dev/applications/admin/sessions/127.0.0.1-21f401f5-ead2-4ab9-a5b8-1dbc957a5324'"
p62
sS'request'
p63
ccopy_reg
_reconstructor
p64
(cgluon.html
BEAUTIFY
p65
c__builtin__
object
p66
NtRp67
(dp68
S'attributes'
p69
(dp70
sS'components'
p71
(lp72
g64
(cgluon.html
TABLE
p73
g66
NtRp74
(dp75
g69
(dp76
S'level'
p77
I5
ssS'parent'
p78
Nsg71
(lp79
g64
(cgluon.html
TR
p80
g66
NtRp81
(dp82
g69
(dp83
sg78
g74
sg71
(lp84
g64
(cgluon.html
TD
p85
g66
NtRp86
(dp87
g69
(dp88
S'_style'
p89
S'font-weight:bold;'
p90
ssg78
g81
sg71
(lp91
S'ajax'
p92
asbag64
(g85
g66
NtRp93
(dp94
g69
(dp95
S'_valign'
p96
S'top'
p97
ssg78
g81
sg71
(lp98
S':'
asbag64
(g85
g66
NtRp99
(dp100
g69
(dp101
sg78
g81
sg71
(lp102
g64
(g65
g66
NtRp103
(dp104
g69
(dp105
g77
I5
ssg78
g99
sg71
(lp106
S'False'
p107
asbasbasbag64
(g80
g66
NtRp108
(dp109
g69
(dp110
sg78
g74
sg71
(lp111
g64
(g85
g66
NtRp112
(dp113
g69
(dp114
g89
g90
ssg78
g108
sg71
(lp115
S'application'
p116
asbag64
(g85
g66
NtRp117
(dp118
g69
(dp119
g96
g97
ssg78
g108
sg71
(lp120
S':'
asbag64
(g85
g66
NtRp121
(dp122
g69
(dp123
sg78
g108
sg71
(lp124
g64
(g65
g66
NtRp125
(dp126
g69
(dp127
g77
I5
ssg78
g121
sg71
(lp128
S'admin'
p129
asbasbasbag64
(g80
g66
NtRp130
(dp131
g69
(dp132
sg78
g74
sg71
(lp133
g64
(g85
g66
NtRp134
(dp135
g69
(dp136
g89
g90
ssg78
g130
sg71
(lp137
g45
asbag64
(g85
g66
NtRp138
(dp139
g69
(dp140
g96
g97
ssg78
g130
sg71
(lp141
S':'
asbag64
(g85
g66
NtRp142
(dp143
g69
(dp144
sg78
g130
sg71
(lp145
g64
(g65
g66
NtRp146
(dp147
g69
(dp148
g77
I5
ssg78
g142
sg71
(lp149
g64
(g73
g66
NtRp150
(dp151
g69
(dp152
g77
I4
ssg78
Nsg71
(lp153
g64
(g80
g66
NtRp154
(dp155
g69
(dp156
sg78
g150
sg71
(lp157
g64
(g85
g66
NtRp158
(dp159
g69
(dp160
sg78
g154
sg71
(lp161
g64
(g65
g66
NtRp162
(dp163
g69
(dp164
g77
I4
ssg78
g158
sg71
(lp165
S'admin'
p166
asbasbasbasbasbasbasbag64
(g80
g66
NtRp167
(dp168
g69
(dp169
sg78
g74
sg71
(lp170
g64
(g85
g66
NtRp171
(dp172
g69
(dp173
g89
g90
ssg78
g167
sg71
(lp174
S'body'
p175
asbag64
(g85
g66
NtRp176
(dp177
g69
(dp178
g96
g97
ssg78
g167
sg71
(lp179
S':'
asbag64
(g85
g66
NtRp180
(dp181
g69
(dp182
sg78
g167
sg71
(lp183
g64
(g65
g66
NtRp184
(dp185
g69
(dp186
g77
I5
ssg78
g180
sg71
(lp187
S'<cStringIO.StringO object at 0x0000000005976FB8>'
p188
asbasbasbag64
(g80
g66
NtRp189
(dp190
g69
(dp191
sg78
g74
sg71
(lp192
g64
(g85
g66
NtRp193
(dp194
g69
(dp195
g89
g90
ssg78
g189
sg71
(lp196
S'client'
p197
asbag64
(g85
g66
NtRp198
(dp199
g69
(dp200
g96
g97
ssg78
g189
sg71
(lp201
S':'
asbag64
(g85
g66
NtRp202
(dp203
g69
(dp204
sg78
g189
sg71
(lp205
g64
(g65
g66
NtRp206
(dp207
g69
(dp208
g77
I5
ssg78
g202
sg71
(lp209
S'127.0.0.1'
p210
asbasbasbag64
(g80
g66
NtRp211
(dp212
g69
(dp213
sg78
g74
sg71
(lp214
g64
(g85
g66
NtRp215
(dp216
g69
(dp217
g89
g90
ssg78
g211
sg71
(lp218
S'controller'
p219
asbag64
(g85
g66
NtRp220
(dp221
g69
(dp222
g96
g97
ssg78
g211
sg71
(lp223
S':'
asbag64
(g85
g66
NtRp224
(dp225
g69
(dp226
sg78
g211
sg71
(lp227
g64
(g65
g66
NtRp228
(dp229
g69
(dp230
g77
I5
ssg78
g224
sg71
(lp231
S'default'
p232
asbasbasbag64
(g80
g66
NtRp233
(dp234
g69
(dp235
sg78
g74
sg71
(lp236
g64
(g85
g66
NtRp237
(dp238
g69
(dp239
g89
g90
ssg78
g233
sg71
(lp240
S'cookies'
p241
asbag64
(g85
g66
NtRp242
(dp243
g69
(dp244
g96
g97
ssg78
g233
sg71
(lp245
S':'
asbag64
(g85
g66
NtRp246
(dp247
g69
(dp248
sg78
g233
sg71
(lp249
g64
(g65
g66
NtRp250
(dp251
g69
(dp252
g77
I5
ssg78
g246
sg71
(lp253
g64
(g73
g66
NtRp254
(dp255
g69
(dp256
g77
I4
ssg78
Nsg71
(lp257
g64
(g80
g66
NtRp258
(dp259
g69
(dp260
sg78
g254
sg71
(lp261
g64
(g85
g66
NtRp262
(dp263
g69
(dp264
g89
g90
ssg78
g258
sg71
(lp265
S'session_id_admin'
p266
asbag64
(g85
g66
NtRp267
(dp268
g69
(dp269
g96
g97
ssg78
g258
sg71
(lp270
S':'
asbag64
(g85
g66
NtRp271
(dp272
g69
(dp273
sg78
g258
sg71
(lp274
g64
(g65
g66
NtRp275
(dp276
g69
(dp277
g77
I4
ssg78
g271
sg71
(lp278
g64
(g73
g66
NtRp279
(dp280
g69
(dp281
g77
I3
ssg78
Nsg71
(lp282
g64
(g80
g66
NtRp283
(dp284
g69
(dp285
sg78
g279
sg71
(lp286
g64
(g85
g66
NtRp287
(dp288
g69
(dp289
g89
g90
ssg78
g283
sg71
(lp290
S'comment'
p291
asbag64
(g85
g66
NtRp292
(dp293
g69
(dp294
g96
g97
ssg78
g283
sg71
(lp295
S':'
asbag64
(g85
g66
NtRp296
(dp297
g69
(dp298
sg78
g283
sg71
(lp299
g64
(g65
g66
NtRp300
(dp301
g69
(dp302
g77
I3
ssg78
g296
sg71
(lp303
S''
asbasbasbag64
(g80
g66
NtRp304
(dp305
g69
(dp306
sg78
g279
sg71
(lp307
g64
(g85
g66
NtRp308
(dp309
g69
(dp310
g89
g90
ssg78
g304
sg71
(lp311
S'domain'
p312
asbag64
(g85
g66
NtRp313
(dp314
g69
(dp315
g96
g97
ssg78
g304
sg71
(lp316
S':'
asbag64
(g85
g66
NtRp317
(dp318
g69
(dp319
sg78
g304
sg71
(lp320
g64
(g65
g66
NtRp321
(dp322
g69
(dp323
g77
I3
ssg78
g317
sg71
(lp324
S''
asbasbasbag64
(g80
g66
NtRp325
(dp326
g69
(dp327
sg78
g279
sg71
(lp328
g64
(g85
g66
NtRp329
(dp330
g69
(dp331
g89
g90
ssg78
g325
sg71
(lp332
S'expires'
p333
asbag64
(g85
g66
NtRp334
(dp335
g69
(dp336
g96
g97
ssg78
g325
sg71
(lp337
S':'
asbag64
(g85
g66
NtRp338
(dp339
g69
(dp340
sg78
g325
sg71
(lp341
g64
(g65
g66
NtRp342
(dp343
g69
(dp344
g77
I3
ssg78
g338
sg71
(lp345
S''
asbasbasbag64
(g80
g66
NtRp346
(dp347
g69
(dp348
sg78
g279
sg71
(lp349
g64
(g85
g66
NtRp350
(dp351
g69
(dp352
g89
g90
ssg78
g346
sg71
(lp353
S'httponly'
p354
asbag64
(g85
g66
NtRp355
(dp356
g69
(dp357
g96
g97
ssg78
g346
sg71
(lp358
S':'
asbag64
(g85
g66
NtRp359
(dp360
g69
(dp361
sg78
g346
sg71
(lp362
g64
(g65
g66
NtRp363
(dp364
g69
(dp365
g77
I3
ssg78
g359
sg71
(lp366
S''
asbasbasbag64
(g80
g66
NtRp367
(dp368
g69
(dp369
sg78
g279
sg71
(lp370
g64
(g85
g66
NtRp371
(dp372
g69
(dp373
g89
g90
ssg78
g367
sg71
(lp374
S'max-age'
p375
asbag64
(g85
g66
NtRp376
(dp377
g69
(dp378
g96
g97
ssg78
g367
sg71
(lp379
S':'
asbag64
(g85
g66
NtRp380
(dp381
g69
(dp382
sg78
g367
sg71
(lp383
g64
(g65
g66
NtRp384
(dp385
g69
(dp386
g77
I3
ssg78
g380
sg71
(lp387
S''
asbasbasbag64
(g80
g66
NtRp388
(dp389
g69
(dp390
sg78
g279
sg71
(lp391
g64
(g85
g66
NtRp392
(dp393
g69
(dp394
g89
g90
ssg78
g388
sg71
(lp395
S'path'
p396
asbag64
(g85
g66
NtRp397
(dp398
g69
(dp399
g96
g97
ssg78
g388
sg71
(lp400
S':'
asbag64
(g85
g66
NtRp401
(dp402
g69
(dp403
sg78
g388
sg71
(lp404
g64
(g65
g66
NtRp405
(dp406
g69
(dp407
g77
I3
ssg78
g401
sg71
(lp408
S''
asbasbasbag64
(g80
g66
NtRp409
(dp410
g69
(dp411
sg78
g279
sg71
(lp412
g64
(g85
g66
NtRp413
(dp414
g69
(dp415
g89
g90
ssg78
g409
sg71
(lp416
S'secure'
p417
asbag64
(g85
g66
NtRp418
(dp419
g69
(dp420
g96
g97
ssg78
g409
sg71
(lp421
S':'
asbag64
(g85
g66
NtRp422
(dp423
g69
(dp424
sg78
g409
sg71
(lp425
g64
(g65
g66
NtRp426
(dp427
g69
(dp428
g77
I3
ssg78
g422
sg71
(lp429
S''
asbasbasbag64
(g80
g66
NtRp430
(dp431
g69
(dp432
sg78
g279
sg71
(lp433
g64
(g85
g66
NtRp434
(dp435
g69
(dp436
g89
g90
ssg78
g430
sg71
(lp437
S'version'
p438
asbag64
(g85
g66
NtRp439
(dp440
g69
(dp441
g96
g97
ssg78
g430
sg71
(lp442
S':'
asbag64
(g85
g66
NtRp443
(dp444
g69
(dp445
sg78
g430
sg71
(lp446
g64
(g65
g66
NtRp447
(dp448
g69
(dp449
g77
I3
ssg78
g443
sg71
(lp450
S''
asbasbasbasbasbasbasbag64
(g80
g66
NtRp451
(dp452
g69
(dp453
sg78
g254
sg71
(lp454
g64
(g85
g66
NtRp455
(dp456
g69
(dp457
g89
g90
ssg78
g451
sg71
(lp458
S'session_id_booking'
p459
asbag64
(g85
g66
NtRp460
(dp461
g69
(dp462
g96
g97
ssg78
g451
sg71
(lp463
S':'
asbag64
(g85
g66
NtRp464
(dp465
g69
(dp466
sg78
g451
sg71
(lp467
g64
(g65
g66
NtRp468
(dp469
g69
(dp470
g77
I4
ssg78
g464
sg71
(lp471
g64
(g73
g66
NtRp472
(dp473
g69
(dp474
g77
I3
ssg78
Nsg71
(lp475
g64
(g80
g66
NtRp476
(dp477
g69
(dp478
sg78
g472
sg71
(lp479
g64
(g85
g66
NtRp480
(dp481
g69
(dp482
g89
g90
ssg78
g476
sg71
(lp483
g291
asbag64
(g85
g66
NtRp484
(dp485
g69
(dp486
g96
g97
ssg78
g476
sg71
(lp487
S':'
asbag64
(g85
g66
NtRp488
(dp489
g69
(dp490
sg78
g476
sg71
(lp491
g64
(g65
g66
NtRp492
(dp493
g69
(dp494
g77
I3
ssg78
g488
sg71
(lp495
S''
asbasbasbag64
(g80
g66
NtRp496
(dp497
g69
(dp498
sg78
g472
sg71
(lp499
g64
(g85
g66
NtRp500
(dp501
g69
(dp502
g89
g90
ssg78
g496
sg71
(lp503
g312
asbag64
(g85
g66
NtRp504
(dp505
g69
(dp506
g96
g97
ssg78
g496
sg71
(lp507
S':'
asbag64
(g85
g66
NtRp508
(dp509
g69
(dp510
sg78
g496
sg71
(lp511
g64
(g65
g66
NtRp512
(dp513
g69
(dp514
g77
I3
ssg78
g508
sg71
(lp515
S''
asbasbasbag64
(g80
g66
NtRp516
(dp517
g69
(dp518
sg78
g472
sg71
(lp519
g64
(g85
g66
NtRp520
(dp521
g69
(dp522
g89
g90
ssg78
g516
sg71
(lp523
g333
asbag64
(g85
g66
NtRp524
(dp525
g69
(dp526
g96
g97
ssg78
g516
sg71
(lp527
S':'
asbag64
(g85
g66
NtRp528
(dp529
g69
(dp530
sg78
g516
sg71
(lp531
g64
(g65
g66
NtRp532
(dp533
g69
(dp534
g77
I3
ssg78
g528
sg71
(lp535
S''
asbasbasbag64
(g80
g66
NtRp536
(dp537
g69
(dp538
sg78
g472
sg71
(lp539
g64
(g85
g66
NtRp540
(dp541
g69
(dp542
g89
g90
ssg78
g536
sg71
(lp543
g354
asbag64
(g85
g66
NtRp544
(dp545
g69
(dp546
g96
g97
ssg78
g536
sg71
(lp547
S':'
asbag64
(g85
g66
NtRp548
(dp549
g69
(dp550
sg78
g536
sg71
(lp551
g64
(g65
g66
NtRp552
(dp553
g69
(dp554
g77
I3
ssg78
g548
sg71
(lp555
S''
asbasbasbag64
(g80
g66
NtRp556
(dp557
g69
(dp558
sg78
g472
sg71
(lp559
g64
(g85
g66
NtRp560
(dp561
g69
(dp562
g89
g90
ssg78
g556
sg71
(lp563
g375
asbag64
(g85
g66
NtRp564
(dp565
g69
(dp566
g96
g97
ssg78
g556
sg71
(lp567
S':'
asbag64
(g85
g66
NtRp568
(dp569
g69
(dp570
sg78
g556
sg71
(lp571
g64
(g65
g66
NtRp572
(dp573
g69
(dp574
g77
I3
ssg78
g568
sg71
(lp575
S''
asbasbasbag64
(g80
g66
NtRp576
(dp577
g69
(dp578
sg78
g472
sg71
(lp579
g64
(g85
g66
NtRp580
(dp581
g69
(dp582
g89
g90
ssg78
g576
sg71
(lp583
g396
asbag64
(g85
g66
NtRp584
(dp585
g69
(dp586
g96
g97
ssg78
g576
sg71
(lp587
S':'
asbag64
(g85
g66
NtRp588
(dp589
g69
(dp590
sg78
g576
sg71
(lp591
g64
(g65
g66
NtRp592
(dp593
g69
(dp594
g77
I3
ssg78
g588
sg71
(lp595
S''
asbasbasbag64
(g80
g66
NtRp596
(dp597
g69
(dp598
sg78
g472
sg71
(lp599
g64
(g85
g66
NtRp600
(dp601
g69
(dp602
g89
g90
ssg78
g596
sg71
(lp603
g417
asbag64
(g85
g66
NtRp604
(dp605
g69
(dp606
g96
g97
ssg78
g596
sg71
(lp607
S':'
asbag64
(g85
g66
NtRp608
(dp609
g69
(dp610
sg78
g596
sg71
(lp611
g64
(g65
g66
NtRp612
(dp613
g69
(dp614
g77
I3
ssg78
g608
sg71
(lp615
S''
asbasbasbag64
(g80
g66
NtRp616
(dp617
g69
(dp618
sg78
g472
sg71
(lp619
g64
(g85
g66
NtRp620
(dp621
g69
(dp622
g89
g90
ssg78
g616
sg71
(lp623
g438
asbag64
(g85
g66
NtRp624
(dp625
g69
(dp626
g96
g97
ssg78
g616
sg71
(lp627
S':'
asbag64
(g85
g66
NtRp628
(dp629
g69
(dp630
sg78
g616
sg71
(lp631
g64
(g65
g66
NtRp632
(dp633
g69
(dp634
g77
I3
ssg78
g628
sg71
(lp635
S''
asbasbasbasbasbasbasbasbasbasbasbag64
(g80
g66
NtRp636
(dp637
g69
(dp638
sg78
g74
sg71
(lp639
g64
(g85
g66
NtRp640
(dp641
g69
(dp642
g89
g90
ssg78
g636
sg71
(lp643
S'env'
p644
asbag64
(g85
g66
NtRp645
(dp646
g69
(dp647
g96
g97
ssg78
g636
sg71
(lp648
S':'
asbag64
(g85
g66
NtRp649
(dp650
g69
(dp651
sg78
g636
sg71
(lp652
g64
(g65
g66
NtRp653
(dp654
g69
(dp655
g77
I5
ssg78
g649
sg71
(lp656
g64
(g73
g66
NtRp657
(dp658
g69
(dp659
g77
I4
ssg78
Nsg71
(lp660
g64
(g80
g66
NtRp661
(dp662
g69
(dp663
sg78
g657
sg71
(lp664
g64
(g85
g66
NtRp665
(dp666
g69
(dp667
g89
g90
ssg78
g661
sg71
(lp668
S'app_folders'
p669
asbag64
(g85
g66
NtRp670
(dp671
g69
(dp672
g96
g97
ssg78
g661
sg71
(lp673
S':'
asbag64
(g85
g66
NtRp674
(dp675
g69
(dp676
sg78
g661
sg71
(lp677
g64
(g65
g66
NtRp678
(dp679
g69
(dp680
g77
I4
ssg78
g674
sg71
(lp681
S"set(['D:\\\\Project\\\\Acc_Proj\\\\app_root\\\\wfs_R3_dev\\\\applications\\\\booking\\\\', 'D:\\\\Project\\\\Acc_Proj\\\\app_root\\\\wfs_R3_dev\\\\applications\\\\admin\\\\'])"
p682
asbasbasbag64
(g80
g66
NtRp683
(dp684
g69
(dp685
sg78
g657
sg71
(lp686
g64
(g85
g66
NtRp687
(dp688
g69
(dp689
g89
g90
ssg78
g683
sg71
(lp690
S'applications_parent'
p691
asbag64
(g85
g66
NtRp692
(dp693
g69
(dp694
g96
g97
ssg78
g683
sg71
(lp695
S':'
asbag64
(g85
g66
NtRp696
(dp697
g69
(dp698
sg78
g683
sg71
(lp699
g64
(g65
g66
NtRp700
(dp701
g69
(dp702
g77
I4
ssg78
g696
sg71
(lp703
S'D:\\Project\\Acc_Proj\\app_root\\wfs_R3_dev'
p704
asbasbasbag64
(g80
g66
NtRp705
(dp706
g69
(dp707
sg78
g657
sg71
(lp708
g64
(g85
g66
NtRp709
(dp710
g69
(dp711
g89
g90
ssg78
g705
sg71
(lp712
S'cmd_args'
p713
asbag64
(g85
g66
NtRp714
(dp715
g69
(dp716
g96
g97
ssg78
g705
sg71
(lp717
S':'
asbag64
(g85
g66
NtRp718
(dp719
g69
(dp720
sg78
g705
sg71
(lp721
g64
(g65
g66
NtRp722
(dp723
g69
(dp724
g77
I4
ssg78
g718
sg71
(lp725
g64
(g73
g66
NtRp726
(dp727
g69
(dp728
g77
I3
ssg78
Nsg71
(lp729
sbasbasbasbag64
(g80
g66
NtRp730
(dp731
g69
(dp732
sg78
g657
sg71
(lp733
g64
(g85
g66
NtRp734
(dp735
g69
(dp736
g89
g90
ssg78
g730
sg71
(lp737
S'cmd_options'
p738
asbag64
(g85
g66
NtRp739
(dp740
g69
(dp741
g96
g97
ssg78
g730
sg71
(lp742
S':'
asbag64
(g85
g66
NtRp743
(dp744
g69
(dp745
sg78
g730
sg71
(lp746
g64
(g65
g66
NtRp747
(dp748
g69
(dp749
g77
I4
ssg78
g743
sg71
(lp750
S"<Values at 0x324b648: {'verbose': False, 'ip': '127.0.0.1', 'shutdown_timeout': 5, 'taskbar': False, 'port': 8000, 'maxthreads': None, 'softcron': False, 'server_name': 'Josephgig-PC', 'bpython': False, 'nogui': False, 'nocron': False, 'extcron': False, 'debuglevel': 30, 'test': None, 'folder': 'D:\\\\Project\\\\Acc_Proj\\\\app_root\\\\wfs_R3_dev', 'config': '', 'import_models': False, 'winservice': '', 'shell': None, 'run': '', 'log_filename': 'httpserver.log', 'args': [''], 'profiler_filename': None, 'ssl_private_key': '', 'password': '<ask>', 'request_queue_size': 5, 'ssl_certificate': '', 'cronjob': False, 'plain': False, 'quiet': False, 'interfaces': None, 'minthreads': None, 'timeout': 10, 'numthreads': None, 'nobanner': False, 'pid_filename': 'httpserver.pid'}>"
p751
asbasbasbag64
(g80
g66
NtRp752
(dp753
g69
(dp754
sg78
g657
sg71
(lp755
g64
(g85
g66
NtRp756
(dp757
g69
(dp758
g89
g90
ssg78
g752
sg71
(lp759
S'db_sessions'
p760
asbag64
(g85
g66
NtRp761
(dp762
g69
(dp763
g96
g97
ssg78
g752
sg71
(lp764
S':'
asbag64
(g85
g66
NtRp765
(dp766
g69
(dp767
sg78
g752
sg71
(lp768
g64
(g65
g66
NtRp769
(dp770
g69
(dp771
g77
I4
ssg78
g765
sg71
(lp772
S'set([])'
p773
asbasbasbag64
(g80
g66
NtRp774
(dp775
g69
(dp776
sg78
g657
sg71
(lp777
g64
(g85
g66
NtRp778
(dp779
g69
(dp780
g89
g90
ssg78
g774
sg71
(lp781
S'debugging'
p782
asbag64
(g85
g66
NtRp783
(dp784
g69
(dp785
g96
g97
ssg78
g774
sg71
(lp786
S':'
asbag64
(g85
g66
NtRp787
(dp788
g69
(dp789
sg78
g774
sg71
(lp790
g64
(g65
g66
NtRp791
(dp792
g69
(dp793
g77
I4
ssg78
g787
sg71
(lp794
g107
asbasbasbag64
(g80
g66
NtRp795
(dp796
g69
(dp797
sg78
g657
sg71
(lp798
g64
(g85
g66
NtRp799
(dp800
g69
(dp801
g89
g90
ssg78
g795
sg71
(lp802
S'gluon_parent'
p803
asbag64
(g85
g66
NtRp804
(dp805
g69
(dp806
g96
g97
ssg78
g795
sg71
(lp807
S':'
asbag64
(g85
g66
NtRp808
(dp809
g69
(dp810
sg78
g795
sg71
(lp811
g64
(g65
g66
NtRp812
(dp813
g69
(dp814
g77
I4
ssg78
g808
sg71
(lp815
S'D:\\Project\\Acc_Proj\\app_root\\wfs_R3_dev'
p816
asbasbasbag64
(g80
g66
NtRp817
(dp818
g69
(dp819
sg78
g657
sg71
(lp820
g64
(g85
g66
NtRp821
(dp822
g69
(dp823
g89
g90
ssg78
g817
sg71
(lp824
S'http_accept'
p825
asbag64
(g85
g66
NtRp826
(dp827
g69
(dp828
g96
g97
ssg78
g817
sg71
(lp829
S':'
asbag64
(g85
g66
NtRp830
(dp831
g69
(dp832
sg78
g817
sg71
(lp833
g64
(g65
g66
NtRp834
(dp835
g69
(dp836
g77
I4
ssg78
g830
sg71
(lp837
S'text/html,application/xhtml+xml,application/xml;q=0.9,image/webp,*/*;q=0.8'
p838
asbasbasbag64
(g80
g66
NtRp839
(dp840
g69
(dp841
sg78
g657
sg71
(lp842
g64
(g85
g66
NtRp843
(dp844
g69
(dp845
g89
g90
ssg78
g839
sg71
(lp846
S'http_accept_encoding'
p847
asbag64
(g85
g66
NtRp848
(dp849
g69
(dp850
g96
g97
ssg78
g839
sg71
(lp851
S':'
asbag64
(g85
g66
NtRp852
(dp853
g69
(dp854
sg78
g839
sg71
(lp855
g64
(g65
g66
NtRp856
(dp857
g69
(dp858
g77
I4
ssg78
g852
sg71
(lp859
S'gzip,deflate,sdch'
p860
asbasbasbag64
(g80
g66
NtRp861
(dp862
g69
(dp863
sg78
g657
sg71
(lp864
g64
(g85
g66
NtRp865
(dp866
g69
(dp867
g89
g90
ssg78
g861
sg71
(lp868
S'http_accept_language'
p869
asbag64
(g85
g66
NtRp870
(dp871
g69
(dp872
g96
g97
ssg78
g861
sg71
(lp873
S':'
asbag64
(g85
g66
NtRp874
(dp875
g69
(dp876
sg78
g861
sg71
(lp877
g64
(g65
g66
NtRp878
(dp879
g69
(dp880
g77
I4
ssg78
g874
sg71
(lp881
S'en-US,en;q=0.8'
p882
asbasbasbag64
(g80
g66
NtRp883
(dp884
g69
(dp885
sg78
g657
sg71
(lp886
g64
(g85
g66
NtRp887
(dp888
g69
(dp889
g89
g90
ssg78
g883
sg71
(lp890
S'http_connection'
p891
asbag64
(g85
g66
NtRp892
(dp893
g69
(dp894
g96
g97
ssg78
g883
sg71
(lp895
S':'
asbag64
(g85
g66
NtRp896
(dp897
g69
(dp898
sg78
g883
sg71
(lp899
g64
(g65
g66
NtRp900
(dp901
g69
(dp902
g77
I4
ssg78
g896
sg71
(lp903
S'keep-alive'
p904
asbasbasbag64
(g80
g66
NtRp905
(dp906
g69
(dp907
sg78
g657
sg71
(lp908
g64
(g85
g66
NtRp909
(dp910
g69
(dp911
g89
g90
ssg78
g905
sg71
(lp912
S'http_cookie'
p913
asbag64
(g85
g66
NtRp914
(dp915
g69
(dp916
g96
g97
ssg78
g905
sg71
(lp917
S':'
asbag64
(g85
g66
NtRp918
(dp919
g69
(dp920
sg78
g905
sg71
(lp921
g64
(g65
g66
NtRp922
(dp923
g69
(dp924
g77
I4
ssg78
g918
sg71
(lp925
S'session_id_booking=127.0.0.1-1f097ce4-1dc4-466b-8068-4c2ee94400ca; session_id_admin=127.0.0.1-21f401f5-ead2-4ab9-a5b8-1dbc957a5324'
p926
asbasbasbag64
(g80
g66
NtRp927
(dp928
g69
(dp929
sg78
g657
sg71
(lp930
g64
(g85
g66
NtRp931
(dp932
g69
(dp933
g89
g90
ssg78
g927
sg71
(lp934
S'http_host'
p935
asbag64
(g85
g66
NtRp936
(dp937
g69
(dp938
g96
g97
ssg78
g927
sg71
(lp939
S':'
asbag64
(g85
g66
NtRp940
(dp941
g69
(dp942
sg78
g927
sg71
(lp943
g64
(g65
g66
NtRp944
(dp945
g69
(dp946
g77
I4
ssg78
g940
sg71
(lp947
S'127.0.0.1:8000'
p948
asbasbasbag64
(g80
g66
NtRp949
(dp950
g69
(dp951
sg78
g657
sg71
(lp952
g64
(g85
g66
NtRp953
(dp954
g69
(dp955
g89
g90
ssg78
g949
sg71
(lp956
S'http_referer'
p957
asbag64
(g85
g66
NtRp958
(dp959
g69
(dp960
g96
g97
ssg78
g949
sg71
(lp961
S':'
asbag64
(g85
g66
NtRp962
(dp963
g69
(dp964
sg78
g949
sg71
(lp965
g64
(g65
g66
NtRp966
(dp967
g69
(dp968
g77
I4
ssg78
g962
sg71
(lp969
S'http://127.0.0.1:8000/admin/site'
p970
asbasbasbag64
(g80
g66
NtRp971
(dp972
g69
(dp973
sg78
g657
sg71
(lp974
g64
(g85
g66
NtRp975
(dp976
g69
(dp977
g89
g90
ssg78
g971
sg71
(lp978
S'http_user_agent'
p979
asbag64
(g85
g66
NtRp980
(dp981
g69
(dp982
g96
g97
ssg78
g971
sg71
(lp983
S':'
asbag64
(g85
g66
NtRp984
(dp985
g69
(dp986
sg78
g971
sg71
(lp987
g64
(g65
g66
NtRp988
(dp989
g69
(dp990
g77
I4
ssg78
g984
sg71
(lp991
S'Mozilla/5.0 (Windows NT 6.1; WOW64) AppleWebKit/537.36 (KHTML, like Gecko) Chrome/32.0.1700.107 Safari/537.36'
p992
asbasbasbag64
(g80
g66
NtRp993
(dp994
g69
(dp995
sg78
g657
sg71
(lp996
g64
(g85
g66
NtRp997
(dp998
g69
(dp999
g89
g90
ssg78
g993
sg71
(lp1000
S'is_jython'
p1001
asbag64
(g85
g66
NtRp1002
(dp1003
g69
(dp1004
g96
g97
ssg78
g993
sg71
(lp1005
S':'
asbag64
(g85
g66
NtRp1006
(dp1007
g69
(dp1008
sg78
g993
sg71
(lp1009
g64
(g65
g66
NtRp1010
(dp1011
g69
(dp1012
g77
I4
ssg78
g1006
sg71
(lp1013
g107
asbasbasbag64
(g80
g66
NtRp1014
(dp1015
g69
(dp1016
sg78
g657
sg71
(lp1017
g64
(g85
g66
NtRp1018
(dp1019
g69
(dp1020
g89
g90
ssg78
g1014
sg71
(lp1021
S'path_info'
p1022
asbag64
(g85
g66
NtRp1023
(dp1024
g69
(dp1025
g96
g97
ssg78
g1014
sg71
(lp1026
S':'
asbag64
(g85
g66
NtRp1027
(dp1028
g69
(dp1029
sg78
g1014
sg71
(lp1030
g64
(g65
g66
NtRp1031
(dp1032
g69
(dp1033
g77
I4
ssg78
g1027
sg71
(lp1034
S'/admin/cleanup/admin'
p1035
asbasbasbag64
(g80
g66
NtRp1036
(dp1037
g69
(dp1038
sg78
g657
sg71
(lp1039
g64
(g85
g66
NtRp1040
(dp1041
g69
(dp1042
g89
g90
ssg78
g1036
sg71
(lp1043
S'query_string'
p1044
asbag64
(g85
g66
NtRp1045
(dp1046
g69
(dp1047
g96
g97
ssg78
g1036
sg71
(lp1048
S':'
asbag64
(g85
g66
NtRp1049
(dp1050
g69
(dp1051
sg78
g1036
sg71
(lp1052
g64
(g65
g66
NtRp1053
(dp1054
g69
(dp1055
g77
I4
ssg78
g1049
sg71
(lp1056
S''
asbasbasbag64
(g80
g66
NtRp1057
(dp1058
g69
(dp1059
sg78
g657
sg71
(lp1060
g64
(g85
g66
NtRp1061
(dp1062
g69
(dp1063
g89
g90
ssg78
g1057
sg71
(lp1064
S'remote_addr'
p1065
asbag64
(g85
g66
NtRp1066
(dp1067
g69
(dp1068
g96
g97
ssg78
g1057
sg71
(lp1069
S':'
asbag64
(g85
g66
NtRp1070
(dp1071
g69
(dp1072
sg78
g1057
sg71
(lp1073
g64
(g65
g66
NtRp1074
(dp1075
g69
(dp1076
g77
I4
ssg78
g1070
sg71
(lp1077
g210
asbasbasbag64
(g80
g66
NtRp1078
(dp1079
g69
(dp1080
sg78
g657
sg71
(lp1081
g64
(g85
g66
NtRp1082
(dp1083
g69
(dp1084
g89
g90
ssg78
g1078
sg71
(lp1085
S'remote_port'
p1086
asbag64
(g85
g66
NtRp1087
(dp1088
g69
(dp1089
g96
g97
ssg78
g1078
sg71
(lp1090
S':'
asbag64
(g85
g66
NtRp1091
(dp1092
g69
(dp1093
sg78
g1078
sg71
(lp1094
g64
(g65
g66
NtRp1095
(dp1096
g69
(dp1097
g77
I4
ssg78
g1091
sg71
(lp1098
S'49632'
p1099
asbasbasbag64
(g80
g66
NtRp1100
(dp1101
g69
(dp1102
sg78
g657
sg71
(lp1103
g64
(g85
g66
NtRp1104
(dp1105
g69
(dp1106
g89
g90
ssg78
g1100
sg71
(lp1107
S'request_method'
p1108
asbag64
(g85
g66
NtRp1109
(dp1110
g69
(dp1111
g96
g97
ssg78
g1100
sg71
(lp1112
S':'
asbag64
(g85
g66
NtRp1113
(dp1114
g69
(dp1115
sg78
g1100
sg71
(lp1116
g64
(g65
g66
NtRp1117
(dp1118
g69
(dp1119
g77
I4
ssg78
g1113
sg71
(lp1120
S'GET'
p1121
asbasbasbag64
(g80
g66
NtRp1122
(dp1123
g69
(dp1124
sg78
g657
sg71
(lp1125
g64
(g85
g66
NtRp1126
(dp1127
g69
(dp1128
g89
g90
ssg78
g1122
sg71
(lp1129
S'request_uri'
p1130
asbag64
(g85
g66
NtRp1131
(dp1132
g69
(dp1133
g96
g97
ssg78
g1122
sg71
(lp1134
S':'
asbag64
(g85
g66
NtRp1135
(dp1136
g69
(dp1137
sg78
g1122
sg71
(lp1138
g64
(g65
g66
NtRp1139
(dp1140
g69
(dp1141
g77
I4
ssg78
g1135
sg71
(lp1142
S'/admin/default/cleanup/admin'
p1143
asbasbasbag64
(g80
g66
NtRp1144
(dp1145
g69
(dp1146
sg78
g657
sg71
(lp1147
g64
(g85
g66
NtRp1148
(dp1149
g69
(dp1150
g89
g90
ssg78
g1144
sg71
(lp1151
S'script_name'
p1152
asbag64
(g85
g66
NtRp1153
(dp1154
g69
(dp1155
g96
g97
ssg78
g1144
sg71
(lp1156
S':'
asbag64
(g85
g66
NtRp1157
(dp1158
g69
(dp1159
sg78
g1144
sg71
(lp1160
g64
(g65
g66
NtRp1161
(dp1162
g69
(dp1163
g77
I4
ssg78
g1157
sg71
(lp1164
S''
asbasbasbag64
(g80
g66
NtRp1165
(dp1166
g69
(dp1167
sg78
g657
sg71
(lp1168
g64
(g85
g66
NtRp1169
(dp1170
g69
(dp1171
g89
g90
ssg78
g1165
sg71
(lp1172
S'server_name'
p1173
asbag64
(g85
g66
NtRp1174
(dp1175
g69
(dp1176
g96
g97
ssg78
g1165
sg71
(lp1177
S':'
asbag64
(g85
g66
NtRp1178
(dp1179
g69
(dp1180
sg78
g1165
sg71
(lp1181
g64
(g65
g66
NtRp1182
(dp1183
g69
(dp1184
g77
I4
ssg78
g1178
sg71
(lp1185
S'Josephgig-PC'
p1186
asbasbasbag64
(g80
g66
NtRp1187
(dp1188
g69
(dp1189
sg78
g657
sg71
(lp1190
g64
(g85
g66
NtRp1191
(dp1192
g69
(dp1193
g89
g90
ssg78
g1187
sg71
(lp1194
S'server_port'
p1195
asbag64
(g85
g66
NtRp1196
(dp1197
g69
(dp1198
g96
g97
ssg78
g1187
sg71
(lp1199
S':'
asbag64
(g85
g66
NtRp1200
(dp1201
g69
(dp1202
sg78
g1187
sg71
(lp1203
g64
(g65
g66
NtRp1204
(dp1205
g69
(dp1206
g77
I4
ssg78
g1200
sg71
(lp1207
S'8000'
p1208
asbasbasbag64
(g80
g66
NtRp1209
(dp1210
g69
(dp1211
sg78
g657
sg71
(lp1212
g64
(g85
g66
NtRp1213
(dp1214
g69
(dp1215
g89
g90
ssg78
g1209
sg71
(lp1216
S'server_protocol'
p1217
asbag64
(g85
g66
NtRp1218
(dp1219
g69
(dp1220
g96
g97
ssg78
g1209
sg71
(lp1221
S':'
asbag64
(g85
g66
NtRp1222
(dp1223
g69
(dp1224
sg78
g1209
sg71
(lp1225
g64
(g65
g66
NtRp1226
(dp1227
g69
(dp1228
g77
I4
ssg78
g1222
sg71
(lp1229
S'HTTP/1.1'
p1230
asbasbasbag64
(g80
g66
NtRp1231
(dp1232
g69
(dp1233
sg78
g657
sg71
(lp1234
g64
(g85
g66
NtRp1235
(dp1236
g69
(dp1237
g89
g90
ssg78
g1231
sg71
(lp1238
S'server_software'
p1239
asbag64
(g85
g66
NtRp1240
(dp1241
g69
(dp1242
g96
g97
ssg78
g1231
sg71
(lp1243
S':'
asbag64
(g85
g66
NtRp1244
(dp1245
g69
(dp1246
sg78
g1231
sg71
(lp1247
g64
(g65
g66
NtRp1248
(dp1249
g69
(dp1250
g77
I4
ssg78
g1244
sg71
(lp1251
S'Rocket 1.2.2'
p1252
asbasbasbag64
(g80
g66
NtRp1253
(dp1254
g69
(dp1255
sg78
g657
sg71
(lp1256
g64
(g85
g66
NtRp1257
(dp1258
g69
(dp1259
g89
g90
ssg78
g1253
sg71
(lp1260
S'web2py_crontype'
p1261
asbag64
(g85
g66
NtRp1262
(dp1263
g69
(dp1264
g96
g97
ssg78
g1253
sg71
(lp1265
S':'
asbag64
(g85
g66
NtRp1266
(dp1267
g69
(dp1268
sg78
g1253
sg71
(lp1269
g64
(g65
g66
NtRp1270
(dp1271
g69
(dp1272
g77
I4
ssg78
g1266
sg71
(lp1273
S'hard'
p1274
asbasbasbag64
(g80
g66
NtRp1275
(dp1276
g69
(dp1277
sg78
g657
sg71
(lp1278
g64
(g85
g66
NtRp1279
(dp1280
g69
(dp1281
g89
g90
ssg78
g1275
sg71
(lp1282
S'web2py_original_uri'
p1283
asbag64
(g85
g66
NtRp1284
(dp1285
g69
(dp1286
g96
g97
ssg78
g1275
sg71
(lp1287
S':'
asbag64
(g85
g66
NtRp1288
(dp1289
g69
(dp1290
sg78
g1275
sg71
(lp1291
g64
(g65
g66
NtRp1292
(dp1293
g69
(dp1294
g77
I4
ssg78
g1288
sg71
(lp1295
g1035
asbasbasbag64
(g80
g66
NtRp1296
(dp1297
g69
(dp1298
sg78
g657
sg71
(lp1299
g64
(g85
g66
NtRp1300
(dp1301
g69
(dp1302
g89
g90
ssg78
g1296
sg71
(lp1303
S'web2py_path'
p1304
asbag64
(g85
g66
NtRp1305
(dp1306
g69
(dp1307
g96
g97
ssg78
g1296
sg71
(lp1308
S':'
asbag64
(g85
g66
NtRp1309
(dp1310
g69
(dp1311
sg78
g1296
sg71
(lp1312
g64
(g65
g66
NtRp1313
(dp1314
g69
(dp1315
g77
I4
ssg78
g1309
sg71
(lp1316
g704
asbasbasbag64
(g80
g66
NtRp1317
(dp1318
g69
(dp1319
sg78
g657
sg71
(lp1320
g64
(g85
g66
NtRp1321
(dp1322
g69
(dp1323
g89
g90
ssg78
g1317
sg71
(lp1324
S'web2py_version'
p1325
asbag64
(g85
g66
NtRp1326
(dp1327
g69
(dp1328
g96
g97
ssg78
g1317
sg71
(lp1329
S':'
asbag64
(g85
g66
NtRp1330
(dp1331
g69
(dp1332
sg78
g1317
sg71
(lp1333
g64
(g65
g66
NtRp1334
(dp1335
g69
(dp1336
g77
I4
ssg78
g1330
sg71
(lp1337
S'Version 1.98.2 (2011-08-04 00:47:09)\n'
p1338
asbasbasbag64
(g80
g66
NtRp1339
(dp1340
g69
(dp1341
sg78
g657
sg71
(lp1342
g64
(g85
g66
NtRp1343
(dp1344
g69
(dp1345
g89
g90
ssg78
g1339
sg71
(lp1346
S'wsgi_errors'
p1347
asbag64
(g85
g66
NtRp1348
(dp1349
g69
(dp1350
g96
g97
ssg78
g1339
sg71
(lp1351
S':'
asbag64
(g85
g66
NtRp1352
(dp1353
g69
(dp1354
sg78
g1339
sg71
(lp1355
g64
(g65
g66
NtRp1356
(dp1357
g69
(dp1358
g77
I4
ssg78
g1352
sg71
(lp1359
S"<open file '<stderr>', mode 'w' at 0x0000000001F8E1E0>"
p1360
asbasbasbag64
(g80
g66
NtRp1361
(dp1362
g69
(dp1363
sg78
g657
sg71
(lp1364
g64
(g85
g66
NtRp1365
(dp1366
g69
(dp1367
g89
g90
ssg78
g1361
sg71
(lp1368
S'wsgi_file_wrapper'
p1369
asbag64
(g85
g66
NtRp1370
(dp1371
g69
(dp1372
g96
g97
ssg78
g1361
sg71
(lp1373
S':'
asbag64
(g85
g66
NtRp1374
(dp1375
g69
(dp1376
sg78
g1361
sg71
(lp1377
g64
(g65
g66
NtRp1378
(dp1379
g69
(dp1380
g77
I4
ssg78
g1374
sg71
(lp1381
S'<class gluon.rocket.FileWrapper at 0x0000000003071768>'
p1382
asbasbasbag64
(g80
g66
NtRp1383
(dp1384
g69
(dp1385
sg78
g657
sg71
(lp1386
g64
(g85
g66
NtRp1387
(dp1388
g69
(dp1389
g89
g90
ssg78
g1383
sg71
(lp1390
S'wsgi_input'
p1391
asbag64
(g85
g66
NtRp1392
(dp1393
g69
(dp1394
g96
g97
ssg78
g1383
sg71
(lp1395
S':'
asbag64
(g85
g66
NtRp1396
(dp1397
g69
(dp1398
sg78
g1383
sg71
(lp1399
g64
(g65
g66
NtRp1400
(dp1401
g69
(dp1402
g77
I4
ssg78
g1396
sg71
(lp1403
S'<socket._fileobject object at 0x000000000526BA20>'
p1404
asbasbasbag64
(g80
g66
NtRp1405
(dp1406
g69
(dp1407
sg78
g657
sg71
(lp1408
g64
(g85
g66
NtRp1409
(dp1410
g69
(dp1411
g89
g90
ssg78
g1405
sg71
(lp1412
S'wsgi_multiprocess'
p1413
asbag64
(g85
g66
NtRp1414
(dp1415
g69
(dp1416
g96
g97
ssg78
g1405
sg71
(lp1417
S':'
asbag64
(g85
g66
NtRp1418
(dp1419
g69
(dp1420
sg78
g1405
sg71
(lp1421
g64
(g65
g66
NtRp1422
(dp1423
g69
(dp1424
g77
I4
ssg78
g1418
sg71
(lp1425
g107
asbasbasbag64
(g80
g66
NtRp1426
(dp1427
g69
(dp1428
sg78
g657
sg71
(lp1429
g64
(g85
g66
NtRp1430
(dp1431
g69
(dp1432
g89
g90
ssg78
g1426
sg71
(lp1433
S'wsgi_multithread'
p1434
asbag64
(g85
g66
NtRp1435
(dp1436
g69
(dp1437
g96
g97
ssg78
g1426
sg71
(lp1438
S':'
asbag64
(g85
g66
NtRp1439
(dp1440
g69
(dp1441
sg78
g1426
sg71
(lp1442
g64
(g65
g66
NtRp1443
(dp1444
g69
(dp1445
g77
I4
ssg78
g1439
sg71
(lp1446
S'True'
p1447
asbasbasbag64
(g80
g66
NtRp1448
(dp1449
g69
(dp1450
sg78
g657
sg71
(lp1451
g64
(g85
g66
NtRp1452
(dp1453
g69
(dp1454
g89
g90
ssg78
g1448
sg71
(lp1455
S'wsgi_run_once'
p1456
asbag64
(g85
g66
NtRp1457
(dp1458
g69
(dp1459
g96
g97
ssg78
g1448
sg71
(lp1460
S':'
asbag64
(g85
g66
NtRp1461
(dp1462
g69
(dp1463
sg78
g1448
sg71
(lp1464
g64
(g65
g66
NtRp1465
(dp1466
g69
(dp1467
g77
I4
ssg78
g1461
sg71
(lp1468
g107
asbasbasbag64
(g80
g66
NtRp1469
(dp1470
g69
(dp1471
sg78
g657
sg71
(lp1472
g64
(g85
g66
NtRp1473
(dp1474
g69
(dp1475
g89
g90
ssg78
g1469
sg71
(lp1476
S'wsgi_url_scheme'
p1477
asbag64
(g85
g66
NtRp1478
(dp1479
g69
(dp1480
g96
g97
ssg78
g1469
sg71
(lp1481
S':'
asbag64
(g85
g66
NtRp1482
(dp1483
g69
(dp1484
sg78
g1469
sg71
(lp1485
g64
(g65
g66
NtRp1486
(dp1487
g69
(dp1488
g77
I4
ssg78
g1482
sg71
(lp1489
S'http'
p1490
asbasbasbag64
(g80
g66
NtRp1491
(dp1492
g69
(dp1493
sg78
g657
sg71
(lp1494
g64
(g85
g66
NtRp1495
(dp1496
g69
(dp1497
g89
g90
ssg78
g1491
sg71
(lp1498
S'wsgi_version'
p1499
asbag64
(g85
g66
NtRp1500
(dp1501
g69
(dp1502
g96
g97
ssg78
g1491
sg71
(lp1503
S':'
asbag64
(g85
g66
NtRp1504
(dp1505
g69
(dp1506
sg78
g1491
sg71
(lp1507
g64
(g65
g66
NtRp1508
(dp1509
g69
(dp1510
g77
I4
ssg78
g1504
sg71
(lp1511
g64
(g73
g66
NtRp1512
(dp1513
g69
(dp1514
g77
I3
ssg78
Nsg71
(lp1515
g64
(g80
g66
NtRp1516
(dp1517
g69
(dp1518
sg78
g1512
sg71
(lp1519
g64
(g85
g66
NtRp1520
(dp1521
g69
(dp1522
sg78
g1516
sg71
(lp1523
g64
(g65
g66
NtRp1524
(dp1525
g69
(dp1526
g77
I3
ssg78
g1520
sg71
(lp1527
S'1'
asbasbasbag64
(g80
g66
NtRp1528
(dp1529
g69
(dp1530
sg78
g1512
sg71
(lp1531
g64
(g85
g66
NtRp1532
(dp1533
g69
(dp1534
sg78
g1528
sg71
(lp1535
g64
(g65
g66
NtRp1536
(dp1537
g69
(dp1538
g77
I3
ssg78
g1532
sg71
(lp1539
S'0'
asbasbasbasbasbasbasbasbasbasbasbag64
(g80
g66
NtRp1540
(dp1541
g69
(dp1542
sg78
g74
sg71
(lp1543
g64
(g85
g66
NtRp1544
(dp1545
g69
(dp1546
g89
g90
ssg78
g1540
sg71
(lp1547
S'extension'
p1548
asbag64
(g85
g66
NtRp1549
(dp1550
g69
(dp1551
g96
g97
ssg78
g1540
sg71
(lp1552
S':'
asbag64
(g85
g66
NtRp1553
(dp1554
g69
(dp1555
sg78
g1540
sg71
(lp1556
g64
(g65
g66
NtRp1557
(dp1558
g69
(dp1559
g77
I5
ssg78
g1553
sg71
(lp1560
S'html'
p1561
asbasbasbag64
(g80
g66
NtRp1562
(dp1563
g69
(dp1564
sg78
g74
sg71
(lp1565
g64
(g85
g66
NtRp1566
(dp1567
g69
(dp1568
g89
g90
ssg78
g1562
sg71
(lp1569
S'folder'
p1570
asbag64
(g85
g66
NtRp1571
(dp1572
g69
(dp1573
g96
g97
ssg78
g1562
sg71
(lp1574
S':'
asbag64
(g85
g66
NtRp1575
(dp1576
g69
(dp1577
sg78
g1562
sg71
(lp1578
g64
(g65
g66
NtRp1579
(dp1580
g69
(dp1581
g77
I5
ssg78
g1575
sg71
(lp1582
S'D:\\Project\\Acc_Proj\\app_root\\wfs_R3_dev\\applications\\admin\\'
p1583
asbasbasbag64
(g80
g66
NtRp1584
(dp1585
g69
(dp1586
sg78
g74
sg71
(lp1587
g64
(g85
g66
NtRp1588
(dp1589
g69
(dp1590
g89
g90
ssg78
g1584
sg71
(lp1591
S'function'
p1592
asbag64
(g85
g66
NtRp1593
(dp1594
g69
(dp1595
g96
g97
ssg78
g1584
sg71
(lp1596
S':'
asbag64
(g85
g66
NtRp1597
(dp1598
g69
(dp1599
sg78
g1584
sg71
(lp1600
g64
(g65
g66
NtRp1601
(dp1602
g69
(dp1603
g77
I5
ssg78
g1597
sg71
(lp1604
S'cleanup'
p1605
asbasbasbag64
(g80
g66
NtRp1606
(dp1607
g69
(dp1608
sg78
g74
sg71
(lp1609
g64
(g85
g66
NtRp1610
(dp1611
g69
(dp1612
g89
g90
ssg78
g1606
sg71
(lp1613
S'get_vars'
p1614
asbag64
(g85
g66
NtRp1615
(dp1616
g69
(dp1617
g96
g97
ssg78
g1606
sg71
(lp1618
S':'
asbag64
(g85
g66
NtRp1619
(dp1620
g69
(dp1621
sg78
g1606
sg71
(lp1622
g64
(g65
g66
NtRp1623
(dp1624
g69
(dp1625
g77
I5
ssg78
g1619
sg71
(lp1626
g64
(g73
g66
NtRp1627
(dp1628
g69
(dp1629
g77
I4
ssg78
Nsg71
(lp1630
sbasbasbasbag64
(g80
g66
NtRp1631
(dp1632
g69
(dp1633
sg78
g74
sg71
(lp1634
g64
(g85
g66
NtRp1635
(dp1636
g69
(dp1637
g89
g90
ssg78
g1631
sg71
(lp1638
S'is_https'
p1639
asbag64
(g85
g66
NtRp1640
(dp1641
g69
(dp1642
g96
g97
ssg78
g1631
sg71
(lp1643
S':'
asbag64
(g85
g66
NtRp1644
(dp1645
g69
(dp1646
sg78
g1631
sg71
(lp1647
g64
(g65
g66
NtRp1648
(dp1649
g69
(dp1650
g77
I5
ssg78
g1644
sg71
(lp1651
g107
asbasbasbag64
(g80
g66
NtRp1652
(dp1653
g69
(dp1654
sg78
g74
sg71
(lp1655
g64
(g85
g66
NtRp1656
(dp1657
g69
(dp1658
g89
g90
ssg78
g1652
sg71
(lp1659
S'is_local'
p1660
asbag64
(g85
g66
NtRp1661
(dp1662
g69
(dp1663
g96
g97
ssg78
g1652
sg71
(lp1664
S':'
asbag64
(g85
g66
NtRp1665
(dp1666
g69
(dp1667
sg78
g1652
sg71
(lp1668
g64
(g65
g66
NtRp1669
(dp1670
g69
(dp1671
g77
I5
ssg78
g1665
sg71
(lp1672
g1447
asbasbasbag64
(g80
g66
NtRp1673
(dp1674
g69
(dp1675
sg78
g74
sg71
(lp1676
g64
(g85
g66
NtRp1677
(dp1678
g69
(dp1679
g89
g90
ssg78
g1673
sg71
(lp1680
S'is_restful'
p1681
asbag64
(g85
g66
NtRp1682
(dp1683
g69
(dp1684
g96
g97
ssg78
g1673
sg71
(lp1685
S':'
asbag64
(g85
g66
NtRp1686
(dp1687
g69
(dp1688
sg78
g1673
sg71
(lp1689
g64
(g65
g66
NtRp1690
(dp1691
g69
(dp1692
g77
I5
ssg78
g1686
sg71
(lp1693
g107
asbasbasbag64
(g80
g66
NtRp1694
(dp1695
g69
(dp1696
sg78
g74
sg71
(lp1697
g64
(g85
g66
NtRp1698
(dp1699
g69
(dp1700
g89
g90
ssg78
g1694
sg71
(lp1701
S'now'
p1702
asbag64
(g85
g66
NtRp1703
(dp1704
g69
(dp1705
g96
g97
ssg78
g1694
sg71
(lp1706
S':'
asbag64
(g85
g66
NtRp1707
(dp1708
g69
(dp1709
sg78
g1694
sg71
(lp1710
g64
(g65
g66
NtRp1711
(dp1712
g69
(dp1713
g77
I5
ssg78
g1707
sg71
(lp1714
S'datetime.datetime(2014, 2, 17, 21, 43, 16, 351000)'
p1715
asbasbasbag64
(g80
g66
NtRp1716
(dp1717
g69
(dp1718
sg78
g74
sg71
(lp1719
g64
(g85
g66
NtRp1720
(dp1721
g69
(dp1722
g89
g90
ssg78
g1716
sg71
(lp1723
S'post_vars'
p1724
asbag64
(g85
g66
NtRp1725
(dp1726
g69
(dp1727
g96
g97
ssg78
g1716
sg71
(lp1728
S':'
asbag64
(g85
g66
NtRp1729
(dp1730
g69
(dp1731
sg78
g1716
sg71
(lp1732
g64
(g65
g66
NtRp1733
(dp1734
g69
(dp1735
g77
I5
ssg78
g1729
sg71
(lp1736
g64
(g73
g66
NtRp1737
(dp1738
g69
(dp1739
g77
I4
ssg78
Nsg71
(lp1740
sbasbasbasbag64
(g80
g66
NtRp1741
(dp1742
g69
(dp1743
sg78
g74
sg71
(lp1744
g64
(g85
g66
NtRp1745
(dp1746
g69
(dp1747
g89
g90
ssg78
g1741
sg71
(lp1748
S'url'
p1749
asbag64
(g85
g66
NtRp1750
(dp1751
g69
(dp1752
g96
g97
ssg78
g1741
sg71
(lp1753
S':'
asbag64
(g85
g66
NtRp1754
(dp1755
g69
(dp1756
sg78
g1741
sg71
(lp1757
g64
(g65
g66
NtRp1758
(dp1759
g69
(dp1760
g77
I5
ssg78
g1754
sg71
(lp1761
S'/admin/cleanup/admin'
p1762
asbasbasbag64
(g80
g66
NtRp1763
(dp1764
g69
(dp1765
sg78
g74
sg71
(lp1766
g64
(g85
g66
NtRp1767
(dp1768
g69
(dp1769
g89
g90
ssg78
g1763
sg71
(lp1770
S'uuid'
p1771
asbag64
(g85
g66
NtRp1772
(dp1773
g69
(dp1774
g96
g97
ssg78
g1763
sg71
(lp1775
S':'
asbag64
(g85
g66
NtRp1776
(dp1777
g69
(dp1778
sg78
g1763
sg71
(lp1779
g64
(g65
g66
NtRp1780
(dp1781
g69
(dp1782
g77
I5
ssg78
g1776
sg71
(lp1783
S'admin/127.0.0.1.2014-02-17.21-43-16.32117cc1-9e6b-455e-95f6-8670d07fd469'
p1784
asbasbasbag64
(g80
g66
NtRp1785
(dp1786
g69
(dp1787
sg78
g74
sg71
(lp1788
g64
(g85
g66
NtRp1789
(dp1790
g69
(dp1791
g89
g90
ssg78
g1785
sg71
(lp1792
S'vars'
p1793
asbag64
(g85
g66
NtRp1794
(dp1795
g69
(dp1796
g96
g97
ssg78
g1785
sg71
(lp1797
S':'
asbag64
(g85
g66
NtRp1798
(dp1799
g69
(dp1800
sg78
g1785
sg71
(lp1801
g64
(g65
g66
NtRp1802
(dp1803
g69
(dp1804
g77
I5
ssg78
g1798
sg71
(lp1805
g64
(g73
g66
NtRp1806
(dp1807
g69
(dp1808
g77
I4
ssg78
Nsg71
(lp1809
sbasbasbasbag64
(g80
g66
NtRp1810
(dp1811
g69
(dp1812
sg78
g74
sg71
(lp1813
g64
(g85
g66
NtRp1814
(dp1815
g69
(dp1816
g89
g90
ssg78
g1810
sg71
(lp1817
S'wsgi'
p1818
asbag64
(g85
g66
NtRp1819
(dp1820
g69
(dp1821
g96
g97
ssg78
g1810
sg71
(lp1822
S':'
asbag64
(g85
g66
NtRp1823
(dp1824
g69
(dp1825
sg78
g1810
sg71
(lp1826
g64
(g65
g66
NtRp1827
(dp1828
g69
(dp1829
g77
I5
ssg78
g1823
sg71
(lp1830
g64
(g73
g66
NtRp1831
(dp1832
g69
(dp1833
g77
I4
ssg78
Nsg71
(lp1834
g64
(g80
g66
NtRp1835
(dp1836
g69
(dp1837
sg78
g1831
sg71
(lp1838
g64
(g85
g66
NtRp1839
(dp1840
g69
(dp1841
g89
g90
ssg78
g1835
sg71
(lp1842
S'environ'
p1843
asbag64
(g85
g66
NtRp1844
(dp1845
g69
(dp1846
g96
g97
ssg78
g1835
sg71
(lp1847
S':'
asbag64
(g85
g66
NtRp1848
(dp1849
g69
(dp1850
sg78
g1835
sg71
(lp1851
g64
(g65
g66
NtRp1852
(dp1853
g69
(dp1854
g77
I4
ssg78
g1848
sg71
(lp1855
g64
(g73
g66
NtRp1856
(dp1857
g69
(dp1858
g77
I3
ssg78
Nsg71
(lp1859
g64
(g80
g66
NtRp1860
(dp1861
g69
(dp1862
sg78
g1856
sg71
(lp1863
g64
(g85
g66
NtRp1864
(dp1865
g69
(dp1866
g89
g90
ssg78
g1860
sg71
(lp1867
S'HTTP_ACCEPT'
p1868
asbag64
(g85
g66
NtRp1869
(dp1870
g69
(dp1871
g96
g97
ssg78
g1860
sg71
(lp1872
S':'
asbag64
(g85
g66
NtRp1873
(dp1874
g69
(dp1875
sg78
g1860
sg71
(lp1876
g64
(g65
g66
NtRp1877
(dp1878
g69
(dp1879
g77
I3
ssg78
g1873
sg71
(lp1880
g838
asbasbasbag64
(g80
g66
NtRp1881
(dp1882
g69
(dp1883
sg78
g1856
sg71
(lp1884
g64
(g85
g66
NtRp1885
(dp1886
g69
(dp1887
g89
g90
ssg78
g1881
sg71
(lp1888
S'HTTP_ACCEPT_ENCODING'
p1889
asbag64
(g85
g66
NtRp1890
(dp1891
g69
(dp1892
g96
g97
ssg78
g1881
sg71
(lp1893
S':'
asbag64
(g85
g66
NtRp1894
(dp1895
g69
(dp1896
sg78
g1881
sg71
(lp1897
g64
(g65
g66
NtRp1898
(dp1899
g69
(dp1900
g77
I3
ssg78
g1894
sg71
(lp1901
g860
asbasbasbag64
(g80
g66
NtRp1902
(dp1903
g69
(dp1904
sg78
g1856
sg71
(lp1905
g64
(g85
g66
NtRp1906
(dp1907
g69
(dp1908
g89
g90
ssg78
g1902
sg71
(lp1909
S'HTTP_ACCEPT_LANGUAGE'
p1910
asbag64
(g85
g66
NtRp1911
(dp1912
g69
(dp1913
g96
g97
ssg78
g1902
sg71
(lp1914
S':'
asbag64
(g85
g66
NtRp1915
(dp1916
g69
(dp1917
sg78
g1902
sg71
(lp1918
g64
(g65
g66
NtRp1919
(dp1920
g69
(dp1921
g77
I3
ssg78
g1915
sg71
(lp1922
g882
asbasbasbag64
(g80
g66
NtRp1923
(dp1924
g69
(dp1925
sg78
g1856
sg71
(lp1926
g64
(g85
g66
NtRp1927
(dp1928
g69
(dp1929
g89
g90
ssg78
g1923
sg71
(lp1930
S'HTTP_CONNECTION'
p1931
asbag64
(g85
g66
NtRp1932
(dp1933
g69
(dp1934
g96
g97
ssg78
g1923
sg71
(lp1935
S':'
asbag64
(g85
g66
NtRp1936
(dp1937
g69
(dp1938
sg78
g1923
sg71
(lp1939
g64
(g65
g66
NtRp1940
(dp1941
g69
(dp1942
g77
I3
ssg78
g1936
sg71
(lp1943
g904
asbasbasbag64
(g80
g66
NtRp1944
(dp1945
g69
(dp1946
sg78
g1856
sg71
(lp1947
g64
(g85
g66
NtRp1948
(dp1949
g69
(dp1950
g89
g90
ssg78
g1944
sg71
(lp1951
S'HTTP_COOKIE'
p1952
asbag64
(g85
g66
NtRp1953
(dp1954
g69
(dp1955
g96
g97
ssg78
g1944
sg71
(lp1956
S':'
asbag64
(g85
g66
NtRp1957
(dp1958
g69
(dp1959
sg78
g1944
sg71
(lp1960
g64
(g65
g66
NtRp1961
(dp1962
g69
(dp1963
g77
I3
ssg78
g1957
sg71
(lp1964
g926
asbasbasbag64
(g80
g66
NtRp1965
(dp1966
g69
(dp1967
sg78
g1856
sg71
(lp1968
g64
(g85
g66
NtRp1969
(dp1970
g69
(dp1971
g89
g90
ssg78
g1965
sg71
(lp1972
S'HTTP_HOST'
p1973
asbag64
(g85
g66
NtRp1974
(dp1975
g69
(dp1976
g96
g97
ssg78
g1965
sg71
(lp1977
S':'
asbag64
(g85
g66
NtRp1978
(dp1979
g69
(dp1980
sg78
g1965
sg71
(lp1981
g64
(g65
g66
NtRp1982
(dp1983
g69
(dp1984
g77
I3
ssg78
g1978
sg71
(lp1985
g948
asbasbasbag64
(g80
g66
NtRp1986
(dp1987
g69
(dp1988
sg78
g1856
sg71
(lp1989
g64
(g85
g66
NtRp1990
(dp1991
g69
(dp1992
g89
g90
ssg78
g1986
sg71
(lp1993
S'HTTP_REFERER'
p1994
asbag64
(g85
g66
NtRp1995
(dp1996
g69
(dp1997
g96
g97
ssg78
g1986
sg71
(lp1998
S':'
asbag64
(g85
g66
NtRp1999
(dp2000
g69
(dp2001
sg78
g1986
sg71
(lp2002
g64
(g65
g66
NtRp2003
(dp2004
g69
(dp2005
g77
I3
ssg78
g1999
sg71
(lp2006
g970
asbasbasbag64
(g80
g66
NtRp2007
(dp2008
g69
(dp2009
sg78
g1856
sg71
(lp2010
g64
(g85
g66
NtRp2011
(dp2012
g69
(dp2013
g89
g90
ssg78
g2007
sg71
(lp2014
S'HTTP_USER_AGENT'
p2015
asbag64
(g85
g66
NtRp2016
(dp2017
g69
(dp2018
g96
g97
ssg78
g2007
sg71
(lp2019
S':'
asbag64
(g85
g66
NtRp2020
(dp2021
g69
(dp2022
sg78
g2007
sg71
(lp2023
g64
(g65
g66
NtRp2024
(dp2025
g69
(dp2026
g77
I3
ssg78
g2020
sg71
(lp2027
g992
asbasbasbag64
(g80
g66
NtRp2028
(dp2029
g69
(dp2030
sg78
g1856
sg71
(lp2031
g64
(g85
g66
NtRp2032
(dp2033
g69
(dp2034
g89
g90
ssg78
g2028
sg71
(lp2035
S'PATH_INFO'
p2036
asbag64
(g85
g66
NtRp2037
(dp2038
g69
(dp2039
g96
g97
ssg78
g2028
sg71
(lp2040
S':'
asbag64
(g85
g66
NtRp2041
(dp2042
g69
(dp2043
sg78
g2028
sg71
(lp2044
g64
(g65
g66
NtRp2045
(dp2046
g69
(dp2047
g77
I3
ssg78
g2041
sg71
(lp2048
g1035
asbasbasbag64
(g80
g66
NtRp2049
(dp2050
g69
(dp2051
sg78
g1856
sg71
(lp2052
g64
(g85
g66
NtRp2053
(dp2054
g69
(dp2055
g89
g90
ssg78
g2049
sg71
(lp2056
S'QUERY_STRING'
p2057
asbag64
(g85
g66
NtRp2058
(dp2059
g69
(dp2060
g96
g97
ssg78
g2049
sg71
(lp2061
S':'
asbag64
(g85
g66
NtRp2062
(dp2063
g69
(dp2064
sg78
g2049
sg71
(lp2065
g64
(g65
g66
NtRp2066
(dp2067
g69
(dp2068
g77
I3
ssg78
g2062
sg71
(lp2069
S''
asbasbasbag64
(g80
g66
NtRp2070
(dp2071
g69
(dp2072
sg78
g1856
sg71
(lp2073
g64
(g85
g66
NtRp2074
(dp2075
g69
(dp2076
g89
g90
ssg78
g2070
sg71
(lp2077
S'REMOTE_ADDR'
p2078
asbag64
(g85
g66
NtRp2079
(dp2080
g69
(dp2081
g96
g97
ssg78
g2070
sg71
(lp2082
S':'
asbag64
(g85
g66
NtRp2083
(dp2084
g69
(dp2085
sg78
g2070
sg71
(lp2086
g64
(g65
g66
NtRp2087
(dp2088
g69
(dp2089
g77
I3
ssg78
g2083
sg71
(lp2090
g210
asbasbasbag64
(g80
g66
NtRp2091
(dp2092
g69
(dp2093
sg78
g1856
sg71
(lp2094
g64
(g85
g66
NtRp2095
(dp2096
g69
(dp2097
g89
g90
ssg78
g2091
sg71
(lp2098
S'REMOTE_PORT'
p2099
asbag64
(g85
g66
NtRp2100
(dp2101
g69
(dp2102
g96
g97
ssg78
g2091
sg71
(lp2103
S':'
asbag64
(g85
g66
NtRp2104
(dp2105
g69
(dp2106
sg78
g2091
sg71
(lp2107
g64
(g65
g66
NtRp2108
(dp2109
g69
(dp2110
g77
I3
ssg78
g2104
sg71
(lp2111
g1099
asbasbasbag64
(g80
g66
NtRp2112
(dp2113
g69
(dp2114
sg78
g1856
sg71
(lp2115
g64
(g85
g66
NtRp2116
(dp2117
g69
(dp2118
g89
g90
ssg78
g2112
sg71
(lp2119
S'REQUEST_METHOD'
p2120
asbag64
(g85
g66
NtRp2121
(dp2122
g69
(dp2123
g96
g97
ssg78
g2112
sg71
(lp2124
S':'
asbag64
(g85
g66
NtRp2125
(dp2126
g69
(dp2127
sg78
g2112
sg71
(lp2128
g64
(g65
g66
NtRp2129
(dp2130
g69
(dp2131
g77
I3
ssg78
g2125
sg71
(lp2132
g1121
asbasbasbag64
(g80
g66
NtRp2133
(dp2134
g69
(dp2135
sg78
g1856
sg71
(lp2136
g64
(g85
g66
NtRp2137
(dp2138
g69
(dp2139
g89
g90
ssg78
g2133
sg71
(lp2140
S'REQUEST_URI'
p2141
asbag64
(g85
g66
NtRp2142
(dp2143
g69
(dp2144
g96
g97
ssg78
g2133
sg71
(lp2145
S':'
asbag64
(g85
g66
NtRp2146
(dp2147
g69
(dp2148
sg78
g2133
sg71
(lp2149
g64
(g65
g66
NtRp2150
(dp2151
g69
(dp2152
g77
I3
ssg78
g2146
sg71
(lp2153
g1143
asbasbasbag64
(g80
g66
NtRp2154
(dp2155
g69
(dp2156
sg78
g1856
sg71
(lp2157
g64
(g85
g66
NtRp2158
(dp2159
g69
(dp2160
g89
g90
ssg78
g2154
sg71
(lp2161
S'SCRIPT_NAME'
p2162
asbag64
(g85
g66
NtRp2163
(dp2164
g69
(dp2165
g96
g97
ssg78
g2154
sg71
(lp2166
S':'
asbag64
(g85
g66
NtRp2167
(dp2168
g69
(dp2169
sg78
g2154
sg71
(lp2170
g64
(g65
g66
NtRp2171
(dp2172
g69
(dp2173
g77
I3
ssg78
g2167
sg71
(lp2174
S''
asbasbasbag64
(g80
g66
NtRp2175
(dp2176
g69
(dp2177
sg78
g1856
sg71
(lp2178
g64
(g85
g66
NtRp2179
(dp2180
g69
(dp2181
g89
g90
ssg78
g2175
sg71
(lp2182
S'SERVER_NAME'
p2183
asbag64
(g85
g66
NtRp2184
(dp2185
g69
(dp2186
g96
g97
ssg78
g2175
sg71
(lp2187
S':'
asbag64
(g85
g66
NtRp2188
(dp2189
g69
(dp2190
sg78
g2175
sg71
(lp2191
g64
(g65
g66
NtRp2192
(dp2193
g69
(dp2194
g77
I3
ssg78
g2188
sg71
(lp2195
g1186
asbasbasbag64
(g80
g66
NtRp2196
(dp2197
g69
(dp2198
sg78
g1856
sg71
(lp2199
g64
(g85
g66
NtRp2200
(dp2201
g69
(dp2202
g89
g90
ssg78
g2196
sg71
(lp2203
S'SERVER_PORT'
p2204
asbag64
(g85
g66
NtRp2205
(dp2206
g69
(dp2207
g96
g97
ssg78
g2196
sg71
(lp2208
S':'
asbag64
(g85
g66
NtRp2209
(dp2210
g69
(dp2211
sg78
g2196
sg71
(lp2212
g64
(g65
g66
NtRp2213
(dp2214
g69
(dp2215
g77
I3
ssg78
g2209
sg71
(lp2216
g1208
asbasbasbag64
(g80
g66
NtRp2217
(dp2218
g69
(dp2219
sg78
g1856
sg71
(lp2220
g64
(g85
g66
NtRp2221
(dp2222
g69
(dp2223
g89
g90
ssg78
g2217
sg71
(lp2224
S'SERVER_PROTOCOL'
p2225
asbag64
(g85
g66
NtRp2226
(dp2227
g69
(dp2228
g96
g97
ssg78
g2217
sg71
(lp2229
S':'
asbag64
(g85
g66
NtRp2230
(dp2231
g69
(dp2232
sg78
g2217
sg71
(lp2233
g64
(g65
g66
NtRp2234
(dp2235
g69
(dp2236
g77
I3
ssg78
g2230
sg71
(lp2237
g1230
asbasbasbag64
(g80
g66
NtRp2238
(dp2239
g69
(dp2240
sg78
g1856
sg71
(lp2241
g64
(g85
g66
NtRp2242
(dp2243
g69
(dp2244
g89
g90
ssg78
g2238
sg71
(lp2245
S'SERVER_SOFTWARE'
p2246
asbag64
(g85
g66
NtRp2247
(dp2248
g69
(dp2249
g96
g97
ssg78
g2238
sg71
(lp2250
S':'
asbag64
(g85
g66
NtRp2251
(dp2252
g69
(dp2253
sg78
g2238
sg71
(lp2254
g64
(g65
g66
NtRp2255
(dp2256
g69
(dp2257
g77
I3
ssg78
g2251
sg71
(lp2258
g1252
asbasbasbag64
(g80
g66
NtRp2259
(dp2260
g69
(dp2261
sg78
g1856
sg71
(lp2262
g64
(g85
g66
NtRp2263
(dp2264
g69
(dp2265
g89
g90
ssg78
g2259
sg71
(lp2266
S'WEB2PY_ORIGINAL_URI'
p2267
asbag64
(g85
g66
NtRp2268
(dp2269
g69
(dp2270
g96
g97
ssg78
g2259
sg71
(lp2271
S':'
asbag64
(g85
g66
NtRp2272
(dp2273
g69
(dp2274
sg78
g2259
sg71
(lp2275
g64
(g65
g66
NtRp2276
(dp2277
g69
(dp2278
g77
I3
ssg78
g2272
sg71
(lp2279
g1035
asbasbasbag64
(g80
g66
NtRp2280
(dp2281
g69
(dp2282
sg78
g1856
sg71
(lp2283
g64
(g85
g66
NtRp2284
(dp2285
g69
(dp2286
g89
g90
ssg78
g2280
sg71
(lp2287
S'wsgi.errors'
p2288
asbag64
(g85
g66
NtRp2289
(dp2290
g69
(dp2291
g96
g97
ssg78
g2280
sg71
(lp2292
S':'
asbag64
(g85
g66
NtRp2293
(dp2294
g69
(dp2295
sg78
g2280
sg71
(lp2296
g64
(g65
g66
NtRp2297
(dp2298
g69
(dp2299
g77
I3
ssg78
g2293
sg71
(lp2300
S"<open file '<stderr>', mode 'w' at 0x0000000001F8E1E0>"
p2301
asbasbasbag64
(g80
g66
NtRp2302
(dp2303
g69
(dp2304
sg78
g1856
sg71
(lp2305
g64
(g85
g66
NtRp2306
(dp2307
g69
(dp2308
g89
g90
ssg78
g2302
sg71
(lp2309
S'wsgi.file_wrapper'
p2310
asbag64
(g85
g66
NtRp2311
(dp2312
g69
(dp2313
g96
g97
ssg78
g2302
sg71
(lp2314
S':'
asbag64
(g85
g66
NtRp2315
(dp2316
g69
(dp2317
sg78
g2302
sg71
(lp2318
g64
(g65
g66
NtRp2319
(dp2320
g69
(dp2321
g77
I3
ssg78
g2315
sg71
(lp2322
S'<class gluon.rocket.FileWrapper at 0x0000000003071768>'
p2323
asbasbasbag64
(g80
g66
NtRp2324
(dp2325
g69
(dp2326
sg78
g1856
sg71
(lp2327
g64
(g85
g66
NtRp2328
(dp2329
g69
(dp2330
g89
g90
ssg78
g2324
sg71
(lp2331
S'wsgi.input'
p2332
asbag64
(g85
g66
NtRp2333
(dp2334
g69
(dp2335
g96
g97
ssg78
g2324
sg71
(lp2336
S':'
asbag64
(g85
g66
NtRp2337
(dp2338
g69
(dp2339
sg78
g2324
sg71
(lp2340
g64
(g65
g66
NtRp2341
(dp2342
g69
(dp2343
g77
I3
ssg78
g2337
sg71
(lp2344
S'<cStringIO.StringO object at 0x0000000005976FB8>'
p2345
asbasbasbag64
(g80
g66
NtRp2346
(dp2347
g69
(dp2348
sg78
g1856
sg71
(lp2349
g64
(g85
g66
NtRp2350
(dp2351
g69
(dp2352
g89
g90
ssg78
g2346
sg71
(lp2353
S'wsgi.multiprocess'
p2354
asbag64
(g85
g66
NtRp2355
(dp2356
g69
(dp2357
g96
g97
ssg78
g2346
sg71
(lp2358
S':'
asbag64
(g85
g66
NtRp2359
(dp2360
g69
(dp2361
sg78
g2346
sg71
(lp2362
g64
(g65
g66
NtRp2363
(dp2364
g69
(dp2365
g77
I3
ssg78
g2359
sg71
(lp2366
g107
asbasbasbag64
(g80
g66
NtRp2367
(dp2368
g69
(dp2369
sg78
g1856
sg71
(lp2370
g64
(g85
g66
NtRp2371
(dp2372
g69
(dp2373
g89
g90
ssg78
g2367
sg71
(lp2374
S'wsgi.multithread'
p2375
asbag64
(g85
g66
NtRp2376
(dp2377
g69
(dp2378
g96
g97
ssg78
g2367
sg71
(lp2379
S':'
asbag64
(g85
g66
NtRp2380
(dp2381
g69
(dp2382
sg78
g2367
sg71
(lp2383
g64
(g65
g66
NtRp2384
(dp2385
g69
(dp2386
g77
I3
ssg78
g2380
sg71
(lp2387
g1447
asbasbasbag64
(g80
g66
NtRp2388
(dp2389
g69
(dp2390
sg78
g1856
sg71
(lp2391
g64
(g85
g66
NtRp2392
(dp2393
g69
(dp2394
g89
g90
ssg78
g2388
sg71
(lp2395
S'wsgi.run_once'
p2396
asbag64
(g85
g66
NtRp2397
(dp2398
g69
(dp2399
g96
g97
ssg78
g2388
sg71
(lp2400
S':'
asbag64
(g85
g66
NtRp2401
(dp2402
g69
(dp2403
sg78
g2388
sg71
(lp2404
g64
(g65
g66
NtRp2405
(dp2406
g69
(dp2407
g77
I3
ssg78
g2401
sg71
(lp2408
g107
asbasbasbag64
(g80
g66
NtRp2409
(dp2410
g69
(dp2411
sg78
g1856
sg71
(lp2412
g64
(g85
g66
NtRp2413
(dp2414
g69
(dp2415
g89
g90
ssg78
g2409
sg71
(lp2416
S'wsgi.url_scheme'
p2417
asbag64
(g85
g66
NtRp2418
(dp2419
g69
(dp2420
g96
g97
ssg78
g2409
sg71
(lp2421
S':'
asbag64
(g85
g66
NtRp2422
(dp2423
g69
(dp2424
sg78
g2409
sg71
(lp2425
g64
(g65
g66
NtRp2426
(dp2427
g69
(dp2428
g77
I3
ssg78
g2422
sg71
(lp2429
g1490
asbasbasbag64
(g80
g66
NtRp2430
(dp2431
g69
(dp2432
sg78
g1856
sg71
(lp2433
g64
(g85
g66
NtRp2434
(dp2435
g69
(dp2436
g89
g90
ssg78
g2430
sg71
(lp2437
S'wsgi.version'
p2438
asbag64
(g85
g66
NtRp2439
(dp2440
g69
(dp2441
g96
g97
ssg78
g2430
sg71
(lp2442
S':'
asbag64
(g85
g66
NtRp2443
(dp2444
g69
(dp2445
sg78
g2430
sg71
(lp2446
g64
(g65
g66
NtRp2447
(dp2448
g69
(dp2449
g77
I3
ssg78
g2443
sg71
(lp2450
S'1'
asbasbasbasbasbasbasbasbasbasbasbasbasbsS'frames'
p2451
(lp2452
(dp2453
S'file'
p2454
S'D:\\Project\\Acc_Proj\\app_root\\wfs_R3_dev\\gluon\\restricted.py'
p2455
sS'dump'
p2456
(dp2457
S'environment'
p2458
S"{'A': <class 'gluon.html.A'>, 'ALLOW_TOGGLE': 'true', 'B': <class 'gluon.html.B'>, 'BEAUTIFY': <class 'gluon.html.BEAUTIFY'>, 'BODY': <class 'gluon.html.BODY'>, 'BR': <class 'gluon.html.BR'>, 'BUTTON': <class 'gluon.html.BUTTON'>, 'CAT': <class 'gluon.html.CAT'>, 'CENTER': <class 'gluon.html.CENTER'>, 'CHECK_VERSION': True, ...}"
p2459
sS'ccode'
p2460
S'<code object <module> at 00000000057E4330, file ...plications\\admin\\controllers/default.py", line 3>'
p2461
ssS'lnum'
p2462
I192
sS'lines'
p2463
(dp2464
I192
S'        exec ccode in environment'
p2465
sI193
S'    except HTTP:'
p2466
sI194
S'        raise'
p2467
sI195
S'    except Exception, error:'
p2468
sI196
S'        # XXX Show exception in Wing IDE if running in debugger'
p2469
sI187
S'    try:'
p2470
sI188
S'        if type(code) == types.CodeType:'
p2471
sI189
S'            ccode = code'
p2472
sI190
S'        else:'
p2473
sI191
S'            ccode = compile2(code,layer)'
p2474
ssS'call'
p2475
S'(code="# coding: utf8\\n\\nfrom gluon.admin import *\\nfrom g...ite\'))\\n\\nresponse._vars=response._caller(cleanup)\\n", environment={\'A\': <class \'gluon.html.A\'>, \'ALLOW_TOGGLE\': \'true\', \'B\': <class \'gluon.html.B\'>, \'BEAUTIFY\': <class \'gluon.html.BEAUTIFY\'>, \'BODY\': <class \'gluon.html.BODY\'>, \'BR\': <class \'gluon.html.BR\'>, \'BUTTON\': <class \'gluon.html.BUTTON\'>, \'CAT\': <class \'gluon.html.CAT\'>, \'CENTER\': <class \'gluon.html.CENTER\'>, \'CHECK_VERSION\': True, ...}, layer=r\'D:\\Project\\Acc_Proj\\app_root\\wfs_R3_dev\\applications\\admin\\controllers/default.py\')'
p2476
sS'func'
p2477
S'restricted'
p2478
sa(dp2479
g2454
S'D:\\Project\\Acc_Proj\\app_root\\wfs_R3_dev\\applications\\admin\\controllers\\default.py'
p2480
sg2456
(dp2481
sg2462
I1224
sg2463
(dp2482
I1216
S'    else:'
p2483
sI1217
S'        return dict(form=T("Disabled"))'
p2484
sI1218
S''
sI1219
S'def reload_routes():'
p2485
sI1220
S'   """ Reload routes.py """'
p2486
sI1221
S'   gluon.rewrite.load()'
p2487
sI1222
S"   redirect(URL('site'))"
p2488
sI1213
S'        if not db(db.auth_user).count():'
p2489
sI1214
S'            auth.settings.registration_requires_approval = False'
p2490
sI1215
S'        return dict(form=auth())'
p2491
ssg2475
S'()'
p2492
sg2477
S'<module>'
p2493
sa(dp2494
g2454
S'D:\\Project\\Acc_Proj\\app_root\\wfs_R3_dev\\gluon\\globals.py'
p2495
sg2456
(dp2496
S'self'
p2497
S'undefined'
p2498
sS'f'
S'<function cleanup>'
p2499
ssg2462
I145
sg2463
(dp2500
I140
S'        self.meta = Storage()      # used by web2py_ajax.html'
p2501
sI141
S'        self.menu = []             # used by the default view layout'
p2502
sI142
S'        self.files = []            # used by web2py_ajax.html'
p2503
sI143
S'        self.generic_patterns = [] # patterns to allow generic views'
p2504
sI144
S'        self._vars = None'
p2505
sI145
S'        self._caller = lambda f: f()'
p2506
sI146
S'        self._view_environment = None'
p2507
sI147
S'        self._custom_commit = None'
p2508
sI148
S'        self._custom_rollback = None'
p2509
sI149
S''
ssg2475
S'(f=<function cleanup>)'
p2510
sg2477
S'<lambda>'
p2511
sa(dp2512
g2454
S'D:\\Project\\Acc_Proj\\app_root\\wfs_R3_dev\\applications\\admin\\controllers\\default.py'
p2513
sg2456
(dp2514
S'global request'
p2515
S"<Storage {'is_local': True, 'function': 'cleanup....21-43-16.32117cc1-9e6b-455e-95f6-8670d07fd469'}>"
p2516
sS'app'
p2517
S"'admin'"
p2518
sS'clean'
p2519
g2498
sS'global app_cleanup'
p2520
S'<function app_cleanup>'
p2521
ssg2462
I280
sg2463
(dp2522
I275
S'    return dict(app=app)'
p2523
sI276
S''
sI277
S''
sI278
S'def cleanup():'
p2524
sI279
S'    app = get_app()'
p2525
sI280
S'    clean = app_cleanup(app, request)'
p2526
sI281
S'    if not clean:'
p2527
sI282
S'        session.flash = T("some files could not be removed")'
p2528
sI283
S'    else:'
p2529
sI284
S"        session.flash = T('cache, errors and sessions cleaned')"
p2530
ssg2475
S'()'
p2531
sg2477
S'cleanup'
p2532
sa(dp2533
g2454
S'D:\\Project\\Acc_Proj\\app_root\\wfs_R3_dev\\gluon\\admin.py'
p2534
sg2456
(dp2535
S'f'
S"'127.0.0.1-21f401f5-ead2-4ab9-a5b8-1dbc957a5324'"
p2536
sS'global recursive_unlink'
p2537
S'<function recursive_unlink>'
p2538
sS'global os'
p2539
S"<module 'os' from 'D:\\Program Files\\Python27\\lib\\os.pyc'>"
p2540
sS'path'
p2541
S"'D:/Project/Acc_Proj/app_root/wfs_R3_dev/applications/admin/sessions/'"
p2542
sS'os.path.join'
p2543
S'<function join>'
p2544
sS'os.path'
p2545
S"<module 'ntpath' from 'D:\\Program Files\\Python27\\lib\\ntpath.pyc'>"
p2546
ssg2462
I117
sg2463
(dp2547
I112
S'    # Remove session files'
p2548
sI113
S"    path = apath('%s/sessions/' % app, request)"
p2549
sI114
S'    if os.path.exists(path):'
p2550
sI115
S'        for f in os.listdir(path):'
p2551
sI116
S'            try:'
p2552
sI117
S"                if f[:1]!='.': recursive_unlink(os.path.join(path,f))"
p2553
sI118
S'            except IOError:'
p2554
sI119
S'                r = False'
p2555
sI120
S''
sI121
S'    # Remove cache files'
p2556
ssg2475
S"(app='admin', request=<Storage {'is_local': True, 'function': 'cleanup....21-43-16.32117cc1-9e6b-455e-95f6-8670d07fd469'}>)"
p2557
sg2477
S'app_cleanup'
p2558
sa(dp2559
g2454
S'D:\\Project\\Acc_Proj\\app_root\\wfs_R3_dev\\gluon\\fileutils.py'
p2560
sg2456
(dp2561
S'os.unlink'
p2562
S'<built-in function unlink>'
p2563
sS'global os'
p2564
S"<module 'os' from 'D:\\Program Files\\Python27\\lib\\os.pyc'>"
p2565
sS'f'
S"'D:/Project/Acc_Proj/app_root/wfs_R3_dev/applicat...ns/127.0.0.1-21f401f5-ead2-4ab9-a5b8-1dbc957a5324'"
p2566
ssg2462
I122
sg2463
(dp2567
I117
S'    if os.path.isdir(f):'
p2568
sI118
S'        for s in os.listdir(f):'
p2569
sI119
S'            recursive_unlink(os.path.join(f,s))'
p2570
sI120
S'        os.rmdir(f)'
p2571
sI121
S'    elif os.path.isfile(f):'
p2572
sI122
S'        os.unlink(f)'
p2573
sI123
S''
sI124
S''
sI125
S'def cleanpath(path):'
p2574
sI126
S'    """'
p2575
ssg2475
S"(f='D:/Project/Acc_Proj/app_root/wfs_R3_dev/applicat...ns/127.0.0.1-21f401f5-ead2-4ab9-a5b8-1dbc957a5324')"
p2576
sg2477
S'recursive_unlink'
p2577
sasS'pyver'
p2578
S'Python 2.7.2: D:\\Program Files\\Python27\\python.exe'
p2579
sS'session'
p2580
g64
(g65
g66
NtRp2581
(dp2582
g69
(dp2583
sg71
(lp2584
g64
(g73
g66
NtRp2585
(dp2586
g69
(dp2587
g77
I5
ssg78
Nsg71
(lp2588
g64
(g80
g66
NtRp2589
(dp2590
g69
(dp2591
sg78
g2585
sg71
(lp2592
g64
(g85
g66
NtRp2593
(dp2594
g69
(dp2595
g89
g90
ssg78
g2589
sg71
(lp2596
S'authorized'
p2597
asbag64
(g85
g66
NtRp2598
(dp2599
g69
(dp2600
g96
g97
ssg78
g2589
sg71
(lp2601
S':'
asbag64
(g85
g66
NtRp2602
(dp2603
g69
(dp2604
sg78
g2589
sg71
(lp2605
g64
(g65
g66
NtRp2606
(dp2607
g69
(dp2608
g77
I5
ssg78
g2602
sg71
(lp2609
g1447
asbasbasbag64
(g80
g66
NtRp2610
(dp2611
g69
(dp2612
sg78
g2585
sg71
(lp2613
g64
(g85
g66
NtRp2614
(dp2615
g69
(dp2616
g89
g90
ssg78
g2610
sg71
(lp2617
S'check_version'
p2618
asbag64
(g85
g66
NtRp2619
(dp2620
g69
(dp2621
g96
g97
ssg78
g2610
sg71
(lp2622
S':'
asbag64
(g85
g66
NtRp2623
(dp2624
g69
(dp2625
sg78
g2610
sg71
(lp2626
g64
(g65
g66
NtRp2627
(dp2628
g69
(dp2629
g77
I5
ssg78
g2623
sg71
(lp2630
g107
asbasbasbag64
(g80
g66
NtRp2631
(dp2632
g69
(dp2633
sg78
g2585
sg71
(lp2634
g64
(g85
g66
NtRp2635
(dp2636
g69
(dp2637
g89
g90
ssg78
g2631
sg71
(lp2638
S'last_time'
p2639
asbag64
(g85
g66
NtRp2640
(dp2641
g69
(dp2642
g96
g97
ssg78
g2631
sg71
(lp2643
S':'
asbag64
(g85
g66
NtRp2644
(dp2645
g69
(dp2646
sg78
g2631
sg71
(lp2647
g64
(g65
g66
NtRp2648
(dp2649
g69
(dp2650
g77
I5
ssg78
g2644
sg71
(lp2651
S'1392653596.382'
p2652
asbasbasbasbasbsS'etype'
p2653
S"<type 'exceptions.WindowsError'>"
p2654
sS'date'
p2655
S'Mon Feb 17 21:43:17 2014'
p2656
sS'response'
p2657
g64
(g65
g66
NtRp2658
(dp2659
g69
(dp2660
sg71
(lp2661
g64
(g73
g66
NtRp2662
(dp2663
g69
(dp2664
g77
I5
ssg78
Nsg71
(lp2665
g64
(g80
g66
NtRp2666
(dp2667
g69
(dp2668
sg78
g2662
sg71
(lp2669
g64
(g85
g66
NtRp2670
(dp2671
g69
(dp2672
g89
g90
ssg78
g2666
sg71
(lp2673
g175
asbag64
(g85
g66
NtRp2674
(dp2675
g69
(dp2676
g96
g97
ssg78
g2666
sg71
(lp2677
S':'
asbag64
(g85
g66
NtRp2678
(dp2679
g69
(dp2680
sg78
g2666
sg71
(lp2681
g64
(g65
g66
NtRp2682
(dp2683
g69
(dp2684
g77
I5
ssg78
g2678
sg71
(lp2685
S'<cStringIO.StringO object at 0x00000000052536C0>'
p2686
asbasbasbag64
(g80
g66
NtRp2687
(dp2688
g69
(dp2689
sg78
g2662
sg71
(lp2690
g64
(g85
g66
NtRp2691
(dp2692
g69
(dp2693
g89
g90
ssg78
g2687
sg71
(lp2694
g241
asbag64
(g85
g66
NtRp2695
(dp2696
g69
(dp2697
g96
g97
ssg78
g2687
sg71
(lp2698
S':'
asbag64
(g85
g66
NtRp2699
(dp2700
g69
(dp2701
sg78
g2687
sg71
(lp2702
g64
(g65
g66
NtRp2703
(dp2704
g69
(dp2705
g77
I5
ssg78
g2699
sg71
(lp2706
g64
(g73
g66
NtRp2707
(dp2708
g69
(dp2709
g77
I4
ssg78
Nsg71
(lp2710
g64
(g80
g66
NtRp2711
(dp2712
g69
(dp2713
sg78
g2707
sg71
(lp2714
g64
(g85
g66
NtRp2715
(dp2716
g69
(dp2717
g89
g90
ssg78
g2711
sg71
(lp2718
S'session_id_admin'
p2719
asbag64
(g85
g66
NtRp2720
(dp2721
g69
(dp2722
g96
g97
ssg78
g2711
sg71
(lp2723
S':'
asbag64
(g85
g66
NtRp2724
(dp2725
g69
(dp2726
sg78
g2711
sg71
(lp2727
g64
(g65
g66
NtRp2728
(dp2729
g69
(dp2730
g77
I4
ssg78
g2724
sg71
(lp2731
g64
(g73
g66
NtRp2732
(dp2733
g69
(dp2734
g77
I3
ssg78
Nsg71
(lp2735
g64
(g80
g66
NtRp2736
(dp2737
g69
(dp2738
sg78
g2732
sg71
(lp2739
g64
(g85
g66
NtRp2740
(dp2741
g69
(dp2742
g89
g90
ssg78
g2736
sg71
(lp2743
g291
asbag64
(g85
g66
NtRp2744
(dp2745
g69
(dp2746
g96
g97
ssg78
g2736
sg71
(lp2747
S':'
asbag64
(g85
g66
NtRp2748
(dp2749
g69
(dp2750
sg78
g2736
sg71
(lp2751
g64
(g65
g66
NtRp2752
(dp2753
g69
(dp2754
g77
I3
ssg78
g2748
sg71
(lp2755
S''
asbasbasbag64
(g80
g66
NtRp2756
(dp2757
g69
(dp2758
sg78
g2732
sg71
(lp2759
g64
(g85
g66
NtRp2760
(dp2761
g69
(dp2762
g89
g90
ssg78
g2756
sg71
(lp2763
g312
asbag64
(g85
g66
NtRp2764
(dp2765
g69
(dp2766
g96
g97
ssg78
g2756
sg71
(lp2767
S':'
asbag64
(g85
g66
NtRp2768
(dp2769
g69
(dp2770
sg78
g2756
sg71
(lp2771
g64
(g65
g66
NtRp2772
(dp2773
g69
(dp2774
g77
I3
ssg78
g2768
sg71
(lp2775
S''
asbasbasbag64
(g80
g66
NtRp2776
(dp2777
g69
(dp2778
sg78
g2732
sg71
(lp2779
g64
(g85
g66
NtRp2780
(dp2781
g69
(dp2782
g89
g90
ssg78
g2776
sg71
(lp2783
g333
asbag64
(g85
g66
NtRp2784
(dp2785
g69
(dp2786
g96
g97
ssg78
g2776
sg71
(lp2787
S':'
asbag64
(g85
g66
NtRp2788
(dp2789
g69
(dp2790
sg78
g2776
sg71
(lp2791
g64
(g65
g66
NtRp2792
(dp2793
g69
(dp2794
g77
I3
ssg78
g2788
sg71
(lp2795
S''
asbasbasbag64
(g80
g66
NtRp2796
(dp2797
g69
(dp2798
sg78
g2732
sg71
(lp2799
g64
(g85
g66
NtRp2800
(dp2801
g69
(dp2802
g89
g90
ssg78
g2796
sg71
(lp2803
g354
asbag64
(g85
g66
NtRp2804
(dp2805
g69
(dp2806
g96
g97
ssg78
g2796
sg71
(lp2807
S':'
asbag64
(g85
g66
NtRp2808
(dp2809
g69
(dp2810
sg78
g2796
sg71
(lp2811
g64
(g65
g66
NtRp2812
(dp2813
g69
(dp2814
g77
I3
ssg78
g2808
sg71
(lp2815
S''
asbasbasbag64
(g80
g66
NtRp2816
(dp2817
g69
(dp2818
sg78
g2732
sg71
(lp2819
g64
(g85
g66
NtRp2820
(dp2821
g69
(dp2822
g89
g90
ssg78
g2816
sg71
(lp2823
g375
asbag64
(g85
g66
NtRp2824
(dp2825
g69
(dp2826
g96
g97
ssg78
g2816
sg71
(lp2827
S':'
asbag64
(g85
g66
NtRp2828
(dp2829
g69
(dp2830
sg78
g2816
sg71
(lp2831
g64
(g65
g66
NtRp2832
(dp2833
g69
(dp2834
g77
I3
ssg78
g2828
sg71
(lp2835
S''
asbasbasbag64
(g80
g66
NtRp2836
(dp2837
g69
(dp2838
sg78
g2732
sg71
(lp2839
g64
(g85
g66
NtRp2840
(dp2841
g69
(dp2842
g89
g90
ssg78
g2836
sg71
(lp2843
g396
asbag64
(g85
g66
NtRp2844
(dp2845
g69
(dp2846
g96
g97
ssg78
g2836
sg71
(lp2847
S':'
asbag64
(g85
g66
NtRp2848
(dp2849
g69
(dp2850
sg78
g2836
sg71
(lp2851
g64
(g65
g66
NtRp2852
(dp2853
g69
(dp2854
g77
I3
ssg78
g2848
sg71
(lp2855
S'/'
asbasbasbag64
(g80
g66
NtRp2856
(dp2857
g69
(dp2858
sg78
g2732
sg71
(lp2859
g64
(g85
g66
NtRp2860
(dp2861
g69
(dp2862
g89
g90
ssg78
g2856
sg71
(lp2863
g417
asbag64
(g85
g66
NtRp2864
(dp2865
g69
(dp2866
g96
g97
ssg78
g2856
sg71
(lp2867
S':'
asbag64
(g85
g66
NtRp2868
(dp2869
g69
(dp2870
sg78
g2856
sg71
(lp2871
g64
(g65
g66
NtRp2872
(dp2873
g69
(dp2874
g77
I3
ssg78
g2868
sg71
(lp2875
S''
asbasbasbag64
(g80
g66
NtRp2876
(dp2877
g69
(dp2878
sg78
g2732
sg71
(lp2879
g64
(g85
g66
NtRp2880
(dp2881
g69
(dp2882
g89
g90
ssg78
g2876
sg71
(lp2883
g438
asbag64
(g85
g66
NtRp2884
(dp2885
g69
(dp2886
g96
g97
ssg78
g2876
sg71
(lp2887
S':'
asbag64
(g85
g66
NtRp2888
(dp2889
g69
(dp2890
sg78
g2876
sg71
(lp2891
g64
(g65
g66
NtRp2892
(dp2893
g69
(dp2894
g77
I3
ssg78
g2888
sg71
(lp2895
S''
asbasbasbasbasbasbasbasbasbasbasbag64
(g80
g66
NtRp2896
(dp2897
g69
(dp2898
sg78
g2662
sg71
(lp2899
g64
(g85
g66
NtRp2900
(dp2901
g69
(dp2902
g89
g90
ssg78
g2896
sg71
(lp2903
S'files'
p2904
asbag64
(g85
g66
NtRp2905
(dp2906
g69
(dp2907
g96
g97
ssg78
g2896
sg71
(lp2908
S':'
asbag64
(g85
g66
NtRp2909
(dp2910
g69
(dp2911
sg78
g2896
sg71
(lp2912
g64
(g65
g66
NtRp2913
(dp2914
g69
(dp2915
g77
I5
ssg78
g2909
sg71
(lp2916
g64
(g73
g66
NtRp2917
(dp2918
g69
(dp2919
g77
I4
ssg78
Nsg71
(lp2920
g64
(g80
g66
NtRp2921
(dp2922
g69
(dp2923
sg78
g2917
sg71
(lp2924
g64
(g85
g66
NtRp2925
(dp2926
g69
(dp2927
sg78
g2921
sg71
(lp2928
g64
(g65
g66
NtRp2929
(dp2930
g69
(dp2931
g77
I4
ssg78
g2925
sg71
(lp2932
S'/admin/static/plugin_multiselect/jquery.dimensions.js'
p2933
asbasbasbag64
(g80
g66
NtRp2934
(dp2935
g69
(dp2936
sg78
g2917
sg71
(lp2937
g64
(g85
g66
NtRp2938
(dp2939
g69
(dp2940
sg78
g2934
sg71
(lp2941
g64
(g65
g66
NtRp2942
(dp2943
g69
(dp2944
g77
I4
ssg78
g2938
sg71
(lp2945
S'/admin/static/plugin_multiselect/jquery.multiselect.js'
p2946
asbasbasbag64
(g80
g66
NtRp2947
(dp2948
g69
(dp2949
sg78
g2917
sg71
(lp2950
g64
(g85
g66
NtRp2951
(dp2952
g69
(dp2953
sg78
g2947
sg71
(lp2954
g64
(g65
g66
NtRp2955
(dp2956
g69
(dp2957
g77
I4
ssg78
g2951
sg71
(lp2958
S'/admin/static/plugin_multiselect/jquery.multiselect.css'
p2959
asbasbasbag64
(g80
g66
NtRp2960
(dp2961
g69
(dp2962
sg78
g2917
sg71
(lp2963
g64
(g85
g66
NtRp2964
(dp2965
g69
(dp2966
sg78
g2960
sg71
(lp2967
g64
(g65
g66
NtRp2968
(dp2969
g69
(dp2970
g77
I4
ssg78
g2964
sg71
(lp2971
S'/admin/static/plugin_multiselect/start.js'
p2972
asbasbasbasbasbasbasbag64
(g80
g66
NtRp2973
(dp2974
g69
(dp2975
sg78
g2662
sg71
(lp2976
g64
(g85
g66
NtRp2977
(dp2978
g69
(dp2979
g89
g90
ssg78
g2973
sg71
(lp2980
S'flash'
p2981
asbag64
(g85
g66
NtRp2982
(dp2983
g69
(dp2984
g96
g97
ssg78
g2973
sg71
(lp2985
S':'
asbag64
(g85
g66
NtRp2986
(dp2987
g69
(dp2988
sg78
g2973
sg71
(lp2989
g64
(g65
g66
NtRp2990
(dp2991
g69
(dp2992
g77
I5
ssg78
g2986
sg71
(lp2993
S''
asbasbasbag64
(g80
g66
NtRp2994
(dp2995
g69
(dp2996
sg78
g2662
sg71
(lp2997
g64
(g85
g66
NtRp2998
(dp2999
g69
(dp3000
g89
g90
ssg78
g2994
sg71
(lp3001
S'generic_patterns'
p3002
asbag64
(g85
g66
NtRp3003
(dp3004
g69
(dp3005
g96
g97
ssg78
g2994
sg71
(lp3006
S':'
asbag64
(g85
g66
NtRp3007
(dp3008
g69
(dp3009
sg78
g2994
sg71
(lp3010
g64
(g65
g66
NtRp3011
(dp3012
g69
(dp3013
g77
I5
ssg78
g3007
sg71
(lp3014
g64
(g73
g66
NtRp3015
(dp3016
g69
(dp3017
g77
I4
ssg78
Nsg71
(lp3018
sbasbasbasbag64
(g80
g66
NtRp3019
(dp3020
g69
(dp3021
sg78
g2662
sg71
(lp3022
g64
(g85
g66
NtRp3023
(dp3024
g69
(dp3025
g89
g90
ssg78
g3019
sg71
(lp3026
S'headers'
p3027
asbag64
(g85
g66
NtRp3028
(dp3029
g69
(dp3030
g96
g97
ssg78
g3019
sg71
(lp3031
S':'
asbag64
(g85
g66
NtRp3032
(dp3033
g69
(dp3034
sg78
g3019
sg71
(lp3035
g64
(g65
g66
NtRp3036
(dp3037
g69
(dp3038
g77
I5
ssg78
g3032
sg71
(lp3039
g64
(g73
g66
NtRp3040
(dp3041
g69
(dp3042
g77
I4
ssg78
Nsg71
(lp3043
g64
(g80
g66
NtRp3044
(dp3045
g69
(dp3046
sg78
g3040
sg71
(lp3047
g64
(g85
g66
NtRp3048
(dp3049
g69
(dp3050
g89
g90
ssg78
g3044
sg71
(lp3051
S'Cache-Control'
p3052
asbag64
(g85
g66
NtRp3053
(dp3054
g69
(dp3055
g96
g97
ssg78
g3044
sg71
(lp3056
S':'
asbag64
(g85
g66
NtRp3057
(dp3058
g69
(dp3059
sg78
g3044
sg71
(lp3060
g64
(g65
g66
NtRp3061
(dp3062
g69
(dp3063
g77
I4
ssg78
g3057
sg71
(lp3064
S'no-store, no-cache, must-revalidate, post-check=0, pre-check=0'
p3065
asbasbasbag64
(g80
g66
NtRp3066
(dp3067
g69
(dp3068
sg78
g3040
sg71
(lp3069
g64
(g85
g66
NtRp3070
(dp3071
g69
(dp3072
g89
g90
ssg78
g3066
sg71
(lp3073
S'Content-Type'
p3074
asbag64
(g85
g66
NtRp3075
(dp3076
g69
(dp3077
g96
g97
ssg78
g3066
sg71
(lp3078
S':'
asbag64
(g85
g66
NtRp3079
(dp3080
g69
(dp3081
sg78
g3066
sg71
(lp3082
g64
(g65
g66
NtRp3083
(dp3084
g69
(dp3085
g77
I4
ssg78
g3079
sg71
(lp3086
S'text/html; charset=utf-8'
p3087
asbasbasbag64
(g80
g66
NtRp3088
(dp3089
g69
(dp3090
sg78
g3040
sg71
(lp3091
g64
(g85
g66
NtRp3092
(dp3093
g69
(dp3094
g89
g90
ssg78
g3088
sg71
(lp3095
S'Expires'
p3096
asbag64
(g85
g66
NtRp3097
(dp3098
g69
(dp3099
g96
g97
ssg78
g3088
sg71
(lp3100
S':'
asbag64
(g85
g66
NtRp3101
(dp3102
g69
(dp3103
sg78
g3088
sg71
(lp3104
g64
(g65
g66
NtRp3105
(dp3106
g69
(dp3107
g77
I4
ssg78
g3101
sg71
(lp3108
S'Mon, 17 Feb 2014 16:13:16 GMT'
p3109
asbasbasbag64
(g80
g66
NtRp3110
(dp3111
g69
(dp3112
sg78
g3040
sg71
(lp3113
g64
(g85
g66
NtRp3114
(dp3115
g69
(dp3116
g89
g90
ssg78
g3110
sg71
(lp3117
S'Pragma'
p3118
asbag64
(g85
g66
NtRp3119
(dp3120
g69
(dp3121
g96
g97
ssg78
g3110
sg71
(lp3122
S':'
asbag64
(g85
g66
NtRp3123
(dp3124
g69
(dp3125
sg78
g3110
sg71
(lp3126
g64
(g65
g66
NtRp3127
(dp3128
g69
(dp3129
g77
I4
ssg78
g3123
sg71
(lp3130
S'no-cache'
p3131
asbasbasbag64
(g80
g66
NtRp3132
(dp3133
g69
(dp3134
sg78
g3040
sg71
(lp3135
g64
(g85
g66
NtRp3136
(dp3137
g69
(dp3138
g89
g90
ssg78
g3132
sg71
(lp3139
S'X-Powered-By'
p3140
asbag64
(g85
g66
NtRp3141
(dp3142
g69
(dp3143
g96
g97
ssg78
g3132
sg71
(lp3144
S':'
asbag64
(g85
g66
NtRp3145
(dp3146
g69
(dp3147
sg78
g3132
sg71
(lp3148
g64
(g65
g66
NtRp3149
(dp3150
g69
(dp3151
g77
I4
ssg78
g3145
sg71
(lp3152
S'web2py'
p3153
asbasbasbasbasbasbasbag64
(g80
g66
NtRp3154
(dp3155
g69
(dp3156
sg78
g2662
sg71
(lp3157
g64
(g85
g66
NtRp3158
(dp3159
g69
(dp3160
g89
g90
ssg78
g3154
sg71
(lp3161
S'menu'
p3162
asbag64
(g85
g66
NtRp3163
(dp3164
g69
(dp3165
g96
g97
ssg78
g3154
sg71
(lp3166
S':'
asbag64
(g85
g66
NtRp3167
(dp3168
g69
(dp3169
sg78
g3154
sg71
(lp3170
g64
(g65
g66
NtRp3171
(dp3172
g69
(dp3173
g77
I5
ssg78
g3167
sg71
(lp3174
g64
(g73
g66
NtRp3175
(dp3176
g69
(dp3177
g77
I4
ssg78
Nsg71
(lp3178
g64
(g80
g66
NtRp3179
(dp3180
g69
(dp3181
sg78
g3175
sg71
(lp3182
g64
(g85
g66
NtRp3183
(dp3184
g69
(dp3185
sg78
g3179
sg71
(lp3186
g64
(g65
g66
NtRp3187
(dp3188
g69
(dp3189
g77
I4
ssg78
g3183
sg71
(lp3190
g64
(g73
g66
NtRp3191
(dp3192
g69
(dp3193
g77
I3
ssg78
Nsg71
(lp3194
g64
(g80
g66
NtRp3195
(dp3196
g69
(dp3197
sg78
g3191
sg71
(lp3198
g64
(g85
g66
NtRp3199
(dp3200
g69
(dp3201
sg78
g3195
sg71
(lp3202
g64
(g65
g66
NtRp3203
(dp3204
g69
(dp3205
g77
I3
ssg78
g3199
sg71
(lp3206
cgluon.languages
lazyT_unpickle
p3207
(S't\x04\x00\x00\x00site'
tRp3208
asbasbasbag64
(g80
g66
NtRp3209
(dp3210
g69
(dp3211
sg78
g3191
sg71
(lp3212
g64
(g85
g66
NtRp3213
(dp3214
g69
(dp3215
sg78
g3209
sg71
(lp3216
g64
(g65
g66
NtRp3217
(dp3218
g69
(dp3219
g77
I3
ssg78
g3213
sg71
(lp3220
g107
asbasbasbag64
(g80
g66
NtRp3221
(dp3222
g69
(dp3223
sg78
g3191
sg71
(lp3224
g64
(g85
g66
NtRp3225
(dp3226
g69
(dp3227
sg78
g3221
sg71
(lp3228
g64
(g65
g66
NtRp3229
(dp3230
g69
(dp3231
g77
I3
ssg78
g3225
sg71
(lp3232
S'/admin/site'
p3233
asbasbasbasbasbasbasbag64
(g80
g66
NtRp3234
(dp3235
g69
(dp3236
sg78
g3175
sg71
(lp3237
g64
(g85
g66
NtRp3238
(dp3239
g69
(dp3240
sg78
g3234
sg71
(lp3241
g64
(g65
g66
NtRp3242
(dp3243
g69
(dp3244
g77
I4
ssg78
g3238
sg71
(lp3245
g64
(g73
g66
NtRp3246
(dp3247
g69
(dp3248
g77
I3
ssg78
Nsg71
(lp3249
g64
(g80
g66
NtRp3250
(dp3251
g69
(dp3252
sg78
g3246
sg71
(lp3253
g64
(g85
g66
NtRp3254
(dp3255
g69
(dp3256
sg78
g3250
sg71
(lp3257
g64
(g65
g66
NtRp3258
(dp3259
g69
(dp3260
g77
I3
ssg78
g3254
sg71
(lp3261
g3207
(S't\x04\x00\x00\x00edit'
tRp3262
asbasbasbag64
(g80
g66
NtRp3263
(dp3264
g69
(dp3265
sg78
g3246
sg71
(lp3266
g64
(g85
g66
NtRp3267
(dp3268
g69
(dp3269
sg78
g3263
sg71
(lp3270
g64
(g65
g66
NtRp3271
(dp3272
g69
(dp3273
g77
I3
ssg78
g3267
sg71
(lp3274
g107
asbasbasbag64
(g80
g66
NtRp3275
(dp3276
g69
(dp3277
sg78
g3246
sg71
(lp3278
g64
(g85
g66
NtRp3279
(dp3280
g69
(dp3281
sg78
g3275
sg71
(lp3282
g64
(g65
g66
NtRp3283
(dp3284
g69
(dp3285
g77
I3
ssg78
g3279
sg71
(lp3286
S'/admin/design/admin'
p3287
asbasbasbasbasbasbasbag64
(g80
g66
NtRp3288
(dp3289
g69
(dp3290
sg78
g3175
sg71
(lp3291
g64
(g85
g66
NtRp3292
(dp3293
g69
(dp3294
sg78
g3288
sg71
(lp3295
g64
(g65
g66
NtRp3296
(dp3297
g69
(dp3298
g77
I4
ssg78
g3292
sg71
(lp3299
g64
(g73
g66
NtRp3300
(dp3301
g69
(dp3302
g77
I3
ssg78
Nsg71
(lp3303
g64
(g80
g66
NtRp3304
(dp3305
g69
(dp3306
sg78
g3300
sg71
(lp3307
g64
(g85
g66
NtRp3308
(dp3309
g69
(dp3310
sg78
g3304
sg71
(lp3311
g64
(g65
g66
NtRp3312
(dp3313
g69
(dp3314
g77
I3
ssg78
g3308
sg71
(lp3315
g3207
(S't\x05\x00\x00\x00about'
tRp3316
asbasbasbag64
(g80
g66
NtRp3317
(dp3318
g69
(dp3319
sg78
g3300
sg71
(lp3320
g64
(g85
g66
NtRp3321
(dp3322
g69
(dp3323
sg78
g3317
sg71
(lp3324
g64
(g65
g66
NtRp3325
(dp3326
g69
(dp3327
g77
I3
ssg78
g3321
sg71
(lp3328
g107
asbasbasbag64
(g80
g66
NtRp3329
(dp3330
g69
(dp3331
sg78
g3300
sg71
(lp3332
g64
(g85
g66
NtRp3333
(dp3334
g69
(dp3335
sg78
g3329
sg71
(lp3336
g64
(g65
g66
NtRp3337
(dp3338
g69
(dp3339
g77
I3
ssg78
g3333
sg71
(lp3340
S'/admin/about/admin'
p3341
asbasbasbasbasbasbasbag64
(g80
g66
NtRp3342
(dp3343
g69
(dp3344
sg78
g3175
sg71
(lp3345
g64
(g85
g66
NtRp3346
(dp3347
g69
(dp3348
sg78
g3342
sg71
(lp3349
g64
(g65
g66
NtRp3350
(dp3351
g69
(dp3352
g77
I4
ssg78
g3346
sg71
(lp3353
g64
(g73
g66
NtRp3354
(dp3355
g69
(dp3356
g77
I3
ssg78
Nsg71
(lp3357
g64
(g80
g66
NtRp3358
(dp3359
g69
(dp3360
sg78
g3354
sg71
(lp3361
g64
(g85
g66
NtRp3362
(dp3363
g69
(dp3364
sg78
g3358
sg71
(lp3365
g64
(g65
g66
NtRp3366
(dp3367
g69
(dp3368
g77
I3
ssg78
g3362
sg71
(lp3369
g3207
(S't\x06\x00\x00\x00errors'
tRp3370
asbasbasbag64
(g80
g66
NtRp3371
(dp3372
g69
(dp3373
sg78
g3354
sg71
(lp3374
g64
(g85
g66
NtRp3375
(dp3376
g69
(dp3377
sg78
g3371
sg71
(lp3378
g64
(g65
g66
NtRp3379
(dp3380
g69
(dp3381
g77
I3
ssg78
g3375
sg71
(lp3382
g107
asbasbasbag64
(g80
g66
NtRp3383
(dp3384
g69
(dp3385
sg78
g3354
sg71
(lp3386
g64
(g85
g66
NtRp3387
(dp3388
g69
(dp3389
sg78
g3383
sg71
(lp3390
g64
(g65
g66
NtRp3391
(dp3392
g69
(dp3393
g77
I3
ssg78
g3387
sg71
(lp3394
S'/admin/errors/admin'
p3395
asbasbasbasbasbasbasbag64
(g80
g66
NtRp3396
(dp3397
g69
(dp3398
sg78
g3175
sg71
(lp3399
g64
(g85
g66
NtRp3400
(dp3401
g69
(dp3402
sg78
g3396
sg71
(lp3403
g64
(g65
g66
NtRp3404
(dp3405
g69
(dp3406
g77
I4
ssg78
g3400
sg71
(lp3407
g64
(g73
g66
NtRp3408
(dp3409
g69
(dp3410
g77
I3
ssg78
Nsg71
(lp3411
g64
(g80
g66
NtRp3412
(dp3413
g69
(dp3414
sg78
g3408
sg71
(lp3415
g64
(g85
g66
NtRp3416
(dp3417
g69
(dp3418
sg78
g3412
sg71
(lp3419
g64
(g65
g66
NtRp3420
(dp3421
g69
(dp3422
g77
I3
ssg78
g3416
sg71
(lp3423
g3207
(S't\n\x00\x00\x00versioning'
tRp3424
asbasbasbag64
(g80
g66
NtRp3425
(dp3426
g69
(dp3427
sg78
g3408
sg71
(lp3428
g64
(g85
g66
NtRp3429
(dp3430
g69
(dp3431
sg78
g3425
sg71
(lp3432
g64
(g65
g66
NtRp3433
(dp3434
g69
(dp3435
g77
I3
ssg78
g3429
sg71
(lp3436
g107
asbasbasbag64
(g80
g66
NtRp3437
(dp3438
g69
(dp3439
sg78
g3408
sg71
(lp3440
g64
(g85
g66
NtRp3441
(dp3442
g69
(dp3443
sg78
g3437
sg71
(lp3444
g64
(g65
g66
NtRp3445
(dp3446
g69
(dp3447
g77
I3
ssg78
g3441
sg71
(lp3448
S'/admin/mercurial/commit/admin'
p3449
asbasbasbasbasbasbasbag64
(g80
g66
NtRp3450
(dp3451
g69
(dp3452
sg78
g3175
sg71
(lp3453
g64
(g85
g66
NtRp3454
(dp3455
g69
(dp3456
sg78
g3450
sg71
(lp3457
g64
(g65
g66
NtRp3458
(dp3459
g69
(dp3460
g77
I4
ssg78
g3454
sg71
(lp3461
g64
(g73
g66
NtRp3462
(dp3463
g69
(dp3464
g77
I3
ssg78
Nsg71
(lp3465
g64
(g80
g66
NtRp3466
(dp3467
g69
(dp3468
sg78
g3462
sg71
(lp3469
g64
(g85
g66
NtRp3470
(dp3471
g69
(dp3472
sg78
g3466
sg71
(lp3473
g64
(g65
g66
NtRp3474
(dp3475
g69
(dp3476
g77
I3
ssg78
g3470
sg71
(lp3477
g3207
(S't\x06\x00\x00\x00logout'
tRp3478
asbasbasbag64
(g80
g66
NtRp3479
(dp3480
g69
(dp3481
sg78
g3462
sg71
(lp3482
g64
(g85
g66
NtRp3483
(dp3484
g69
(dp3485
sg78
g3479
sg71
(lp3486
g64
(g65
g66
NtRp3487
(dp3488
g69
(dp3489
g77
I3
ssg78
g3483
sg71
(lp3490
g107
asbasbasbag64
(g80
g66
NtRp3491
(dp3492
g69
(dp3493
sg78
g3462
sg71
(lp3494
g64
(g85
g66
NtRp3495
(dp3496
g69
(dp3497
sg78
g3491
sg71
(lp3498
g64
(g65
g66
NtRp3499
(dp3500
g69
(dp3501
g77
I3
ssg78
g3495
sg71
(lp3502
S'/admin/logout'
p3503
asbasbasbasbasbasbasbag64
(g80
g66
NtRp3504
(dp3505
g69
(dp3506
sg78
g3175
sg71
(lp3507
g64
(g85
g66
NtRp3508
(dp3509
g69
(dp3510
sg78
g3504
sg71
(lp3511
g64
(g65
g66
NtRp3512
(dp3513
g69
(dp3514
g77
I4
ssg78
g3508
sg71
(lp3515
g64
(g73
g66
NtRp3516
(dp3517
g69
(dp3518
g77
I3
ssg78
Nsg71
(lp3519
g64
(g80
g66
NtRp3520
(dp3521
g69
(dp3522
sg78
g3516
sg71
(lp3523
g64
(g85
g66
NtRp3524
(dp3525
g69
(dp3526
sg78
g3520
sg71
(lp3527
g64
(g65
g66
NtRp3528
(dp3529
g69
(dp3530
g77
I3
ssg78
g3524
sg71
(lp3531
g3207
(S't\x04\x00\x00\x00help'
tRp3532
asbasbasbag64
(g80
g66
NtRp3533
(dp3534
g69
(dp3535
sg78
g3516
sg71
(lp3536
g64
(g85
g66
NtRp3537
(dp3538
g69
(dp3539
sg78
g3533
sg71
(lp3540
g64
(g65
g66
NtRp3541
(dp3542
g69
(dp3543
g77
I3
ssg78
g3537
sg71
(lp3544
g107
asbasbasbag64
(g80
g66
NtRp3545
(dp3546
g69
(dp3547
sg78
g3516
sg71
(lp3548
g64
(g85
g66
NtRp3549
(dp3550
g69
(dp3551
sg78
g3545
sg71
(lp3552
g64
(g65
g66
NtRp3553
(dp3554
g69
(dp3555
g77
I3
ssg78
g3549
sg71
(lp3556
S'/examples'
p3557
asbasbasbasbasbasbasbasbasbasbasbag64
(g80
g66
NtRp3558
(dp3559
g69
(dp3560
sg78
g2662
sg71
(lp3561
g64
(g85
g66
NtRp3562
(dp3563
g69
(dp3564
g89
g90
ssg78
g3558
sg71
(lp3565
S'meta'
p3566
asbag64
(g85
g66
NtRp3567
(dp3568
g69
(dp3569
g96
g97
ssg78
g3558
sg71
(lp3570
S':'
asbag64
(g85
g66
NtRp3571
(dp3572
g69
(dp3573
sg78
g3558
sg71
(lp3574
g64
(g65
g66
NtRp3575
(dp3576
g69
(dp3577
g77
I5
ssg78
g3571
sg71
(lp3578
g64
(g73
g66
NtRp3579
(dp3580
g69
(dp3581
g77
I4
ssg78
Nsg71
(lp3582
sbasbasbasbag64
(g80
g66
NtRp3583
(dp3584
g69
(dp3585
sg78
g2662
sg71
(lp3586
g64
(g85
g66
NtRp3587
(dp3588
g69
(dp3589
g89
g90
ssg78
g3583
sg71
(lp3590
S'postprocessing'
p3591
asbag64
(g85
g66
NtRp3592
(dp3593
g69
(dp3594
g96
g97
ssg78
g3583
sg71
(lp3595
S':'
asbag64
(g85
g66
NtRp3596
(dp3597
g69
(dp3598
sg78
g3583
sg71
(lp3599
g64
(g65
g66
NtRp3600
(dp3601
g69
(dp3602
g77
I5
ssg78
g3596
sg71
(lp3603
g64
(g73
g66
NtRp3604
(dp3605
g69
(dp3606
g77
I4
ssg78
Nsg71
(lp3607
sbasbasbasbag64
(g80
g66
NtRp3608
(dp3609
g69
(dp3610
sg78
g2662
sg71
(lp3611
g64
(g85
g66
NtRp3612
(dp3613
g69
(dp3614
g89
g90
ssg78
g3608
sg71
(lp3615
S'session_file'
p3616
asbag64
(g85
g66
NtRp3617
(dp3618
g69
(dp3619
g96
g97
ssg78
g3608
sg71
(lp3620
S':'
asbag64
(g85
g66
NtRp3621
(dp3622
g69
(dp3623
sg78
g3608
sg71
(lp3624
g64
(g65
g66
NtRp3625
(dp3626
g69
(dp3627
g77
I5
ssg78
g3621
sg71
(lp3628
S"<open file 'D:\\Project\\Acc_Proj\\app_root\\wfs_R3_dev\\applications\\admin\\sessions\\127.0.0.1-21f401f5-ead2-4ab9-a5b8-1dbc957a5324', mode 'rb+' at 0x0000000005241E40>"
p3629
asbasbasbag64
(g80
g66
NtRp3630
(dp3631
g69
(dp3632
sg78
g2662
sg71
(lp3633
g64
(g85
g66
NtRp3634
(dp3635
g69
(dp3636
g89
g90
ssg78
g3630
sg71
(lp3637
S'session_filename'
p3638
asbag64
(g85
g66
NtRp3639
(dp3640
g69
(dp3641
g96
g97
ssg78
g3630
sg71
(lp3642
S':'
asbag64
(g85
g66
NtRp3643
(dp3644
g69
(dp3645
sg78
g3630
sg71
(lp3646
g64
(g65
g66
NtRp3647
(dp3648
g69
(dp3649
g77
I5
ssg78
g3643
sg71
(lp3650
S'D:\\Project\\Acc_Proj\\app_root\\wfs_R3_dev\\applications\\admin\\sessions\\127.0.0.1-21f401f5-ead2-4ab9-a5b8-1dbc957a5324'
p3651
asbasbasbag64
(g80
g66
NtRp3652
(dp3653
g69
(dp3654
sg78
g2662
sg71
(lp3655
g64
(g85
g66
NtRp3656
(dp3657
g69
(dp3658
g89
g90
ssg78
g3652
sg71
(lp3659
S'session_id'
p3660
asbag64
(g85
g66
NtRp3661
(dp3662
g69
(dp3663
g96
g97
ssg78
g3652
sg71
(lp3664
S':'
asbag64
(g85
g66
NtRp3665
(dp3666
g69
(dp3667
sg78
g3652
sg71
(lp3668
g64
(g65
g66
NtRp3669
(dp3670
g69
(dp3671
g77
I5
ssg78
g3665
sg71
(lp3672
S'127.0.0.1-21f401f5-ead2-4ab9-a5b8-1dbc957a5324'
p3673
asbasbasbag64
(g80
g66
NtRp3674
(dp3675
g69
(dp3676
sg78
g2662
sg71
(lp3677
g64
(g85
g66
NtRp3678
(dp3679
g69
(dp3680
g89
g90
ssg78
g3674
sg71
(lp3681
S'session_id_name'
p3682
asbag64
(g85
g66
NtRp3683
(dp3684
g69
(dp3685
g96
g97
ssg78
g3674
sg71
(lp3686
S':'
asbag64
(g85
g66
NtRp3687
(dp3688
g69
(dp3689
sg78
g3674
sg71
(lp3690
g64
(g65
g66
NtRp3691
(dp3692
g69
(dp3693
g77
I5
ssg78
g3687
sg71
(lp3694
g2719
asbasbasbag64
(g80
g66
NtRp3695
(dp3696
g69
(dp3697
sg78
g2662
sg71
(lp3698
g64
(g85
g66
NtRp3699
(dp3700
g69
(dp3701
g89
g90
ssg78
g3695
sg71
(lp3702
S'session_locked'
p3703
asbag64
(g85
g66
NtRp3704
(dp3705
g69
(dp3706
g96
g97
ssg78
g3695
sg71
(lp3707
S':'
asbag64
(g85
g66
NtRp3708
(dp3709
g69
(dp3710
sg78
g3695
sg71
(lp3711
g64
(g65
g66
NtRp3712
(dp3713
g69
(dp3714
g77
I5
ssg78
g3708
sg71
(lp3715
g1447
asbasbasbag64
(g80
g66
NtRp3716
(dp3717
g69
(dp3718
sg78
g2662
sg71
(lp3719
g64
(g85
g66
NtRp3720
(dp3721
g69
(dp3722
g89
g90
ssg78
g3716
sg71
(lp3723
S'session_new'
p3724
asbag64
(g85
g66
NtRp3725
(dp3726
g69
(dp3727
g96
g97
ssg78
g3716
sg71
(lp3728
S':'
asbag64
(g85
g66
NtRp3729
(dp3730
g69
(dp3731
sg78
g3716
sg71
(lp3732
g64
(g65
g66
NtRp3733
(dp3734
g69
(dp3735
g77
I5
ssg78
g3729
sg71
(lp3736
g107
asbasbasbag64
(g80
g66
NtRp3737
(dp3738
g69
(dp3739
sg78
g2662
sg71
(lp3740
g64
(g85
g66
NtRp3741
(dp3742
g69
(dp3743
g89
g90
ssg78
g3737
sg71
(lp3744
S'status'
p3745
asbag64
(g85
g66
NtRp3746
(dp3747
g69
(dp3748
g96
g97
ssg78
g3737
sg71
(lp3749
S':'
asbag64
(g85
g66
NtRp3750
(dp3751
g69
(dp3752
sg78
g3737
sg71
(lp3753
g64
(g65
g66
NtRp3754
(dp3755
g69
(dp3756
g77
I5
ssg78
g3750
sg71
(lp3757
S'200'
p3758
asbasbasbag64
(g80
g66
NtRp3759
(dp3760
g69
(dp3761
sg78
g2662
sg71
(lp3762
g64
(g85
g66
NtRp3763
(dp3764
g69
(dp3765
g89
g90
ssg78
g3759
sg71
(lp3766
S'subtitle'
p3767
asbag64
(g85
g66
NtRp3768
(dp3769
g69
(dp3770
g96
g97
ssg78
g3759
sg71
(lp3771
S':'
asbag64
(g85
g66
NtRp3772
(dp3773
g69
(dp3774
sg78
g3759
sg71
(lp3775
g64
(g65
g66
NtRp3776
(dp3777
g69
(dp3778
g77
I5
ssg78
g3772
sg71
(lp3779
S'admin'
p3780
asbasbasbag64
(g80
g66
NtRp3781
(dp3782
g69
(dp3783
sg78
g2662
sg71
(lp3784
g64
(g85
g66
NtRp3785
(dp3786
g69
(dp3787
g89
g90
ssg78
g3781
sg71
(lp3788
S'title'
p3789
asbag64
(g85
g66
NtRp3790
(dp3791
g69
(dp3792
g96
g97
ssg78
g3781
sg71
(lp3793
S':'
asbag64
(g85
g66
NtRp3794
(dp3795
g69
(dp3796
sg78
g3781
sg71
(lp3797
g64
(g65
g66
NtRp3798
(dp3799
g69
(dp3800
g77
I5
ssg78
g3794
sg71
(lp3801
S'cleanup admin'
p3802
asbasbasbag64
(g80
g66
NtRp3803
(dp3804
g69
(dp3805
sg78
g2662
sg71
(lp3806
g64
(g85
g66
NtRp3807
(dp3808
g69
(dp3809
g89
g90
ssg78
g3803
sg71
(lp3810
g1771
asbag64
(g85
g66
NtRp3811
(dp3812
g69
(dp3813
g96
g97
ssg78
g3803
sg71
(lp3814
S':'
asbag64
(g85
g66
NtRp3815
(dp3816
g69
(dp3817
sg78
g3803
sg71
(lp3818
g64
(g65
g66
NtRp3819
(dp3820
g69
(dp3821
g77
I5
ssg78
g3815
sg71
(lp3822
g1784
asbasbasbag64
(g80
g66
NtRp3823
(dp3824
g69
(dp3825
sg78
g2662
sg71
(lp3826
g64
(g85
g66
NtRp3827
(dp3828
g69
(dp3829
g89
g90
ssg78
g3823
sg71
(lp3830
S'view'
p3831
asbag64
(g85
g66
NtRp3832
(dp3833
g69
(dp3834
g96
g97
ssg78
g3823
sg71
(lp3835
S':'
asbag64
(g85
g66
NtRp3836
(dp3837
g69
(dp3838
sg78
g3823
sg71
(lp3839
g64
(g65
g66
NtRp3840
(dp3841
g69
(dp3842
g77
I5
ssg78
g3836
sg71
(lp3843
S'default/cleanup.html'
p3844
asbasbasbasbasbsS'locals'
p3845
(dp3846
S'f'
S"'D:/Project/Acc_Proj/app_root/wfs_R3_dev/applicat...ns/127.0.0.1-21f401f5-ead2-4ab9-a5b8-1dbc957a5324'"
p3847
sssS'traceback'
p3848
S'Traceback (most recent call last):\n  File "D:\\Project\\Acc_Proj\\app_root\\wfs_R3_dev\\gluon\\restricted.py", line 192, in restricted\n    exec ccode in environment\n  File "D:\\Project\\Acc_Proj\\app_root\\wfs_R3_dev\\applications\\admin\\controllers/default.py", line 1224, in <module>\n  File "D:\\Project\\Acc_Proj\\app_root\\wfs_R3_dev\\gluon\\globals.py", line 145, in <lambda>\n    self._caller = lambda f: f()\n  File "D:\\Project\\Acc_Proj\\app_root\\wfs_R3_dev\\applications\\admin\\controllers/default.py", line 280, in cleanup\n    clean = app_cleanup(app, request)\n  File "D:\\Project\\Acc_Proj\\app_root\\wfs_R3_dev\\gluon\\admin.py", line 117, in app_cleanup\n    if f[:1]!=\'.\': recursive_unlink(os.path.join(path,f))\n  File "D:\\Project\\Acc_Proj\\app_root\\wfs_R3_dev\\gluon\\fileutils.py", line 122, in recursive_unlink\n    os.unlink(f)\nWindowsError: [Error 32] The process cannot access the file because it is being used by another process: \'D:/Project/Acc_Proj/app_root/wfs_R3_dev/applications/admin/sessions/127.0.0.1-21f401f5-ead2-4ab9-a5b8-1dbc957a5324\'\n'
p3849
s.